
darksocv.o:     file format elf32-littleriscv


Disassembly of section .text:

00000000 <_start>:
   0:	ff010113          	addi	sp,sp,-16
   4:	04000513          	li	a0,64
   8:	00112623          	sw	ra,12(sp)
   c:	00812423          	sw	s0,8(sp)
  10:	080000ef          	jal	ra,90 <putchar>
  14:	80000437          	lui	s0,0x80000
  18:	00044783          	lbu	a5,0(s0) # 80000000 <io+0x0>
  1c:	00001737          	lui	a4,0x1
  20:	00070713          	mv	a4,a4
  24:	00279793          	slli	a5,a5,0x2
  28:	00e787b3          	add	a5,a5,a4
  2c:	0007a583          	lw	a1,0(a5)
  30:	00044603          	lbu	a2,0(s0)
  34:	00001537          	lui	a0,0x1
  38:	01450513          	addi	a0,a0,20 # 1014 <board_name+0x14>
  3c:	308000ef          	jal	ra,344 <printf>
  40:	00040413          	mv	s0,s0
  44:	00144583          	lbu	a1,1(s0)
  48:	00244603          	lbu	a2,2(s0)
  4c:	00001537          	lui	a0,0x1
  50:	02050513          	addi	a0,a0,32 # 1020 <board_name+0x20>
  54:	2f0000ef          	jal	ra,344 <printf>
  58:	00645583          	lhu	a1,6(s0)
  5c:	00001537          	lui	a0,0x1
  60:	03450513          	addi	a0,a0,52 # 1034 <board_name+0x34>
  64:	2e0000ef          	jal	ra,344 <printf>
  68:	440000ef          	jal	ra,4a8 <hello>
  6c:	4b0000ef          	jal	ra,51c <main>
  70:	ffdff06f          	j	6c <_start+0x6c>

00000074 <getchar>:
  74:	800007b7          	lui	a5,0x80000
  78:	00078793          	mv	a5,a5
  7c:	0047c703          	lbu	a4,4(a5) # 80000004 <io+0x4>
  80:	00277713          	andi	a4,a4,2
  84:	fe070ce3          	beqz	a4,7c <getchar+0x8>
  88:	0057c503          	lbu	a0,5(a5)
  8c:	00008067          	ret

00000090 <putchar>:
  90:	800007b7          	lui	a5,0x80000
  94:	00a00713          	li	a4,10
  98:	00078793          	mv	a5,a5
  9c:	00e51c63          	bne	a0,a4,b4 <putchar+0x24>
  a0:	0047c703          	lbu	a4,4(a5) # 80000004 <io+0x4>
  a4:	00177713          	andi	a4,a4,1
  a8:	fe071ce3          	bnez	a4,a0 <putchar+0x10>
  ac:	00d00713          	li	a4,13
  b0:	00e782a3          	sb	a4,5(a5)
  b4:	0047c703          	lbu	a4,4(a5)
  b8:	00177713          	andi	a4,a4,1
  bc:	fe071ce3          	bnez	a4,b4 <putchar+0x24>
  c0:	0ff57713          	andi	a4,a0,255
  c4:	00e782a3          	sb	a4,5(a5)
  c8:	00070513          	mv	a0,a4
  cc:	00008067          	ret

000000d0 <gets>:
  d0:	fe010113          	addi	sp,sp,-32
  d4:	fff58593          	addi	a1,a1,-1
  d8:	00812c23          	sw	s0,24(sp)
  dc:	00912a23          	sw	s1,20(sp)
  e0:	01212823          	sw	s2,16(sp)
  e4:	01312623          	sw	s3,12(sp)
  e8:	00112e23          	sw	ra,28(sp)
  ec:	00050413          	mv	s0,a0
  f0:	00b504b3          	add	s1,a0,a1
  f4:	00a00913          	li	s2,10
  f8:	00d00993          	li	s3,13
  fc:	00940663          	beq	s0,s1,108 <gets+0x38>
 100:	f75ff0ef          	jal	ra,74 <getchar>
 104:	03251663          	bne	a0,s2,130 <gets+0x60>
 108:	00a00513          	li	a0,10
 10c:	f85ff0ef          	jal	ra,90 <putchar>
 110:	01c12083          	lw	ra,28(sp)
 114:	00040023          	sb	zero,0(s0)
 118:	01812403          	lw	s0,24(sp)
 11c:	01412483          	lw	s1,20(sp)
 120:	01012903          	lw	s2,16(sp)
 124:	00c12983          	lw	s3,12(sp)
 128:	02010113          	addi	sp,sp,32
 12c:	00008067          	ret
 130:	fd350ce3          	beq	a0,s3,108 <gets+0x38>
 134:	00140413          	addi	s0,s0,1
 138:	fea40fa3          	sb	a0,-1(s0)
 13c:	0ff57513          	andi	a0,a0,255
 140:	f51ff0ef          	jal	ra,90 <putchar>
 144:	fb9ff06f          	j	fc <gets+0x2c>

00000148 <puts>:
 148:	ff010113          	addi	sp,sp,-16
 14c:	00812423          	sw	s0,8(sp)
 150:	00112623          	sw	ra,12(sp)
 154:	00050413          	mv	s0,a0
 158:	00044503          	lbu	a0,0(s0)
 15c:	00051c63          	bnez	a0,174 <puts+0x2c>
 160:	00812403          	lw	s0,8(sp)
 164:	00c12083          	lw	ra,12(sp)
 168:	00a00513          	li	a0,10
 16c:	01010113          	addi	sp,sp,16
 170:	f21ff06f          	j	90 <putchar>
 174:	00140413          	addi	s0,s0,1
 178:	f19ff0ef          	jal	ra,90 <putchar>
 17c:	fddff06f          	j	158 <puts+0x10>

00000180 <putx>:
 180:	ff010113          	addi	sp,sp,-16
 184:	00812423          	sw	s0,8(sp)
 188:	00912223          	sw	s1,4(sp)
 18c:	00112623          	sw	ra,12(sp)
 190:	000014b7          	lui	s1,0x1
 194:	010007b7          	lui	a5,0x1000
 198:	00050413          	mv	s0,a0
 19c:	0dc48493          	addi	s1,s1,220 # 10dc <board_name+0xdc>
 1a0:	06a7fe63          	bleu	a0,a5,21c <putx+0x9c>
 1a4:	01c55793          	srli	a5,a0,0x1c
 1a8:	00f487b3          	add	a5,s1,a5
 1ac:	0007c503          	lbu	a0,0(a5) # 1000000 <board_name+0xfff000>
 1b0:	ee1ff0ef          	jal	ra,90 <putchar>
 1b4:	01845793          	srli	a5,s0,0x18
 1b8:	00f7f793          	andi	a5,a5,15
 1bc:	00f487b3          	add	a5,s1,a5
 1c0:	0007c503          	lbu	a0,0(a5)
 1c4:	ecdff0ef          	jal	ra,90 <putchar>
 1c8:	01445793          	srli	a5,s0,0x14
 1cc:	00f7f793          	andi	a5,a5,15
 1d0:	00f487b3          	add	a5,s1,a5
 1d4:	0007c503          	lbu	a0,0(a5)
 1d8:	eb9ff0ef          	jal	ra,90 <putchar>
 1dc:	01045793          	srli	a5,s0,0x10
 1e0:	00f7f793          	andi	a5,a5,15
 1e4:	00f487b3          	add	a5,s1,a5
 1e8:	0007c503          	lbu	a0,0(a5)
 1ec:	ea5ff0ef          	jal	ra,90 <putchar>
 1f0:	00c45793          	srli	a5,s0,0xc
 1f4:	00f7f793          	andi	a5,a5,15
 1f8:	00f487b3          	add	a5,s1,a5
 1fc:	0007c503          	lbu	a0,0(a5)
 200:	e91ff0ef          	jal	ra,90 <putchar>
 204:	00845793          	srli	a5,s0,0x8
 208:	00f7f793          	andi	a5,a5,15
 20c:	00f487b3          	add	a5,s1,a5
 210:	0007c503          	lbu	a0,0(a5)
 214:	e7dff0ef          	jal	ra,90 <putchar>
 218:	0140006f          	j	22c <putx+0xac>
 21c:	000107b7          	lui	a5,0x10
 220:	faa7e4e3          	bltu	a5,a0,1c8 <putx+0x48>
 224:	10000793          	li	a5,256
 228:	fca7e4e3          	bltu	a5,a0,1f0 <putx+0x70>
 22c:	00445793          	srli	a5,s0,0x4
 230:	00f7f793          	andi	a5,a5,15
 234:	00f487b3          	add	a5,s1,a5
 238:	0007c503          	lbu	a0,0(a5) # 10000 <board_name+0xf000>
 23c:	00f47413          	andi	s0,s0,15
 240:	00848433          	add	s0,s1,s0
 244:	e4dff0ef          	jal	ra,90 <putchar>
 248:	00044503          	lbu	a0,0(s0)
 24c:	00812403          	lw	s0,8(sp)
 250:	00c12083          	lw	ra,12(sp)
 254:	00412483          	lw	s1,4(sp)
 258:	01010113          	addi	sp,sp,16
 25c:	e35ff06f          	j	90 <putchar>

00000260 <putd>:
 260:	fb010113          	addi	sp,sp,-80
 264:	000015b7          	lui	a1,0x1
 268:	04912223          	sw	s1,68(sp)
 26c:	02800613          	li	a2,40
 270:	00050493          	mv	s1,a0
 274:	0b458593          	addi	a1,a1,180 # 10b4 <board_name+0xb4>
 278:	00810513          	addi	a0,sp,8
 27c:	04112623          	sw	ra,76(sp)
 280:	04812423          	sw	s0,72(sp)
 284:	05212023          	sw	s2,64(sp)
 288:	03312e23          	sw	s3,60(sp)
 28c:	03412c23          	sw	s4,56(sp)
 290:	03512a23          	sw	s5,52(sp)
 294:	03612823          	sw	s6,48(sp)
 298:	1d0000ef          	jal	ra,468 <memcpy>
 29c:	0004d863          	bgez	s1,2ac <putd+0x4c>
 2a0:	02d00513          	li	a0,45
 2a4:	dedff0ef          	jal	ra,90 <putchar>
 2a8:	409004b3          	neg	s1,s1
 2ac:	00810413          	addi	s0,sp,8
 2b0:	00000a93          	li	s5,0
 2b4:	00000993          	li	s3,0
 2b8:	00a00a13          	li	s4,10
 2bc:	00900b13          	li	s6,9
 2c0:	00042703          	lw	a4,0(s0)
 2c4:	00100513          	li	a0,1
 2c8:	40e486b3          	sub	a3,s1,a4
 2cc:	00070793          	mv	a5,a4
 2d0:	00e6ca63          	blt	a3,a4,2e4 <putd+0x84>
 2d4:	00150513          	addi	a0,a0,1
 2d8:	00e787b3          	add	a5,a5,a4
 2dc:	40e686b3          	sub	a3,a3,a4
 2e0:	ff4518e3          	bne	a0,s4,2d0 <putd+0x70>
 2e4:	40f48933          	sub	s2,s1,a5
 2e8:	04094463          	bltz	s2,330 <putd+0xd0>
 2ec:	03050513          	addi	a0,a0,48
 2f0:	da1ff0ef          	jal	ra,90 <putchar>
 2f4:	00090493          	mv	s1,s2
 2f8:	00100a93          	li	s5,1
 2fc:	00198993          	addi	s3,s3,1
 300:	00440413          	addi	s0,s0,4
 304:	fb499ee3          	bne	s3,s4,2c0 <putd+0x60>
 308:	04c12083          	lw	ra,76(sp)
 30c:	04812403          	lw	s0,72(sp)
 310:	04412483          	lw	s1,68(sp)
 314:	04012903          	lw	s2,64(sp)
 318:	03c12983          	lw	s3,60(sp)
 31c:	03812a03          	lw	s4,56(sp)
 320:	03412a83          	lw	s5,52(sp)
 324:	03012b03          	lw	s6,48(sp)
 328:	05010113          	addi	sp,sp,80
 32c:	00008067          	ret
 330:	000a9463          	bnez	s5,338 <putd+0xd8>
 334:	fd6994e3          	bne	s3,s6,2fc <putd+0x9c>
 338:	03000513          	li	a0,48
 33c:	d55ff0ef          	jal	ra,90 <putchar>
 340:	fbdff06f          	j	2fc <putd+0x9c>

00000344 <printf>:
 344:	fb010113          	addi	sp,sp,-80
 348:	04f12223          	sw	a5,68(sp)
 34c:	03410793          	addi	a5,sp,52
 350:	02812423          	sw	s0,40(sp)
 354:	03212023          	sw	s2,32(sp)
 358:	01312e23          	sw	s3,28(sp)
 35c:	01412c23          	sw	s4,24(sp)
 360:	01512a23          	sw	s5,20(sp)
 364:	02112623          	sw	ra,44(sp)
 368:	02912223          	sw	s1,36(sp)
 36c:	00050413          	mv	s0,a0
 370:	02b12a23          	sw	a1,52(sp)
 374:	02c12c23          	sw	a2,56(sp)
 378:	02d12e23          	sw	a3,60(sp)
 37c:	04e12023          	sw	a4,64(sp)
 380:	05012423          	sw	a6,72(sp)
 384:	05112623          	sw	a7,76(sp)
 388:	00f12623          	sw	a5,12(sp)
 38c:	02500913          	li	s2,37
 390:	07300993          	li	s3,115
 394:	07800a13          	li	s4,120
 398:	06400a93          	li	s5,100
 39c:	00044503          	lbu	a0,0(s0)
 3a0:	02051463          	bnez	a0,3c8 <printf+0x84>
 3a4:	02c12083          	lw	ra,44(sp)
 3a8:	02812403          	lw	s0,40(sp)
 3ac:	02412483          	lw	s1,36(sp)
 3b0:	02012903          	lw	s2,32(sp)
 3b4:	01c12983          	lw	s3,28(sp)
 3b8:	01812a03          	lw	s4,24(sp)
 3bc:	01412a83          	lw	s5,20(sp)
 3c0:	05010113          	addi	sp,sp,80
 3c4:	00008067          	ret
 3c8:	00140493          	addi	s1,s0,1
 3cc:	07251463          	bne	a0,s2,434 <printf+0xf0>
 3d0:	00144503          	lbu	a0,1(s0)
 3d4:	03351063          	bne	a0,s3,3f4 <printf+0xb0>
 3d8:	00c12783          	lw	a5,12(sp)
 3dc:	0007a503          	lw	a0,0(a5)
 3e0:	00478713          	addi	a4,a5,4
 3e4:	00e12623          	sw	a4,12(sp)
 3e8:	f5dff0ef          	jal	ra,344 <printf>
 3ec:	00148413          	addi	s0,s1,1
 3f0:	fadff06f          	j	39c <printf+0x58>
 3f4:	01451e63          	bne	a0,s4,410 <printf+0xcc>
 3f8:	00c12783          	lw	a5,12(sp)
 3fc:	0007a503          	lw	a0,0(a5)
 400:	00478713          	addi	a4,a5,4
 404:	00e12623          	sw	a4,12(sp)
 408:	d79ff0ef          	jal	ra,180 <putx>
 40c:	fe1ff06f          	j	3ec <printf+0xa8>
 410:	01551e63          	bne	a0,s5,42c <printf+0xe8>
 414:	00c12783          	lw	a5,12(sp)
 418:	0007a503          	lw	a0,0(a5)
 41c:	00478713          	addi	a4,a5,4
 420:	00e12623          	sw	a4,12(sp)
 424:	e3dff0ef          	jal	ra,260 <putd>
 428:	fc5ff06f          	j	3ec <printf+0xa8>
 42c:	c65ff0ef          	jal	ra,90 <putchar>
 430:	fbdff06f          	j	3ec <printf+0xa8>
 434:	c5dff0ef          	jal	ra,90 <putchar>
 438:	00040493          	mv	s1,s0
 43c:	fb1ff06f          	j	3ec <printf+0xa8>

00000440 <strcmp>:
 440:	00054703          	lbu	a4,0(a0)
 444:	0005c783          	lbu	a5,0(a1)
 448:	00070663          	beqz	a4,454 <strcmp+0x14>
 44c:	00078463          	beqz	a5,454 <strcmp+0x14>
 450:	00f70663          	beq	a4,a5,45c <strcmp+0x1c>
 454:	40f70533          	sub	a0,a4,a5
 458:	00008067          	ret
 45c:	00150513          	addi	a0,a0,1
 460:	00158593          	addi	a1,a1,1
 464:	fddff06f          	j	440 <strcmp>

00000468 <memcpy>:
 468:	00000793          	li	a5,0
 46c:	00c79463          	bne	a5,a2,474 <memcpy+0xc>
 470:	00008067          	ret
 474:	00f58733          	add	a4,a1,a5
 478:	00074683          	lbu	a3,0(a4) # 1000 <board_name>
 47c:	00f50733          	add	a4,a0,a5
 480:	00178793          	addi	a5,a5,1
 484:	00d70023          	sb	a3,0(a4)
 488:	fe5ff06f          	j	46c <memcpy+0x4>

0000048c <memset>:
 48c:	00c50633          	add	a2,a0,a2
 490:	00050793          	mv	a5,a0
 494:	00c79463          	bne	a5,a2,49c <memset+0x10>
 498:	00008067          	ret
 49c:	00178793          	addi	a5,a5,1
 4a0:	feb78fa3          	sb	a1,-1(a5)
 4a4:	ff1ff06f          	j	494 <memset+0x8>

000004a8 <hello>:
 4a8:	ed010113          	addi	sp,sp,-304
 4ac:	000015b7          	lui	a1,0x1
 4b0:	10d00613          	li	a2,269
 4b4:	18458593          	addi	a1,a1,388 # 1184 <board_name+0x184>
 4b8:	00010513          	mv	a0,sp
 4bc:	12812423          	sw	s0,296(sp)
 4c0:	11312e23          	sw	s3,284(sp)
 4c4:	12112623          	sw	ra,300(sp)
 4c8:	12912223          	sw	s1,292(sp)
 4cc:	13212023          	sw	s2,288(sp)
 4d0:	00010413          	mv	s0,sp
 4d4:	f95ff0ef          	jal	ra,468 <memcpy>
 4d8:	fff00993          	li	s3,-1
 4dc:	00044903          	lbu	s2,0(s0)
 4e0:	02091063          	bnez	s2,500 <hello+0x58>
 4e4:	12c12083          	lw	ra,300(sp)
 4e8:	12812403          	lw	s0,296(sp)
 4ec:	12412483          	lw	s1,292(sp)
 4f0:	12012903          	lw	s2,288(sp)
 4f4:	11c12983          	lw	s3,284(sp)
 4f8:	13010113          	addi	sp,sp,304
 4fc:	00008067          	ret
 500:	00240413          	addi	s0,s0,2
 504:	fff44483          	lbu	s1,-1(s0)
 508:	fff48493          	addi	s1,s1,-1
 50c:	fd3488e3          	beq	s1,s3,4dc <hello+0x34>
 510:	00090513          	mv	a0,s2
 514:	b7dff0ef          	jal	ra,90 <putchar>
 518:	ff1ff06f          	j	508 <hello+0x60>

Disassembly of section .text.startup:

0000051c <main>:
 51c:	f9010113          	addi	sp,sp,-112
 520:	00001537          	lui	a0,0x1
 524:	06912223          	sw	s1,100(sp)
 528:	0f050513          	addi	a0,a0,240 # 10f0 <board_name+0xf0>
 52c:	800004b7          	lui	s1,0x80000
 530:	05312e23          	sw	s3,92(sp)
 534:	05412c23          	sw	s4,88(sp)
 538:	05512a23          	sw	s5,84(sp)
 53c:	05612823          	sw	s6,80(sp)
 540:	05712623          	sw	s7,76(sp)
 544:	05812423          	sw	s8,72(sp)
 548:	06112623          	sw	ra,108(sp)
 54c:	06812423          	sw	s0,104(sp)
 550:	07212023          	sw	s2,96(sp)
 554:	05912223          	sw	s9,68(sp)
 558:	05a12023          	sw	s10,64(sp)
 55c:	03b12e23          	sw	s11,60(sp)
 560:	000019b7          	lui	s3,0x1
 564:	be5ff0ef          	jal	ra,148 <puts>
 568:	00001a37          	lui	s4,0x1
 56c:	00001ab7          	lui	s5,0x1
 570:	00001b37          	lui	s6,0x1
 574:	00001bb7          	lui	s7,0x1
 578:	00001c37          	lui	s8,0x1
 57c:	00048493          	mv	s1,s1
 580:	10898513          	addi	a0,s3,264 # 1108 <board_name+0x108>
 584:	dc1ff0ef          	jal	ra,344 <printf>
 588:	02000593          	li	a1,32
 58c:	01010513          	addi	a0,sp,16
 590:	b41ff0ef          	jal	ra,d0 <gets>
 594:	10ca0593          	addi	a1,s4,268 # 110c <board_name+0x10c>
 598:	01010513          	addi	a0,sp,16
 59c:	ea5ff0ef          	jal	ra,440 <strcmp>
 5a0:	00051a63          	bnez	a0,5b4 <main+0x98>
 5a4:	00001537          	lui	a0,0x1
 5a8:	11450513          	addi	a0,a0,276 # 1114 <board_name+0x114>
 5ac:	d99ff0ef          	jal	ra,344 <printf>
 5b0:	fd1ff06f          	j	580 <main+0x64>
 5b4:	11ca8593          	addi	a1,s5,284 # 111c <board_name+0x11c>
 5b8:	01010513          	addi	a0,sp,16
 5bc:	e85ff0ef          	jal	ra,440 <strcmp>
 5c0:	02051063          	bnez	a0,5e0 <main+0xc4>
 5c4:	0084a583          	lw	a1,8(s1) # 80000008 <io+0x8>
 5c8:	00001537          	lui	a0,0x1
 5cc:	12050513          	addi	a0,a0,288 # 1120 <board_name+0x120>
 5d0:	00158593          	addi	a1,a1,1
 5d4:	00b4a423          	sw	a1,8(s1)
 5d8:	d6dff0ef          	jal	ra,344 <printf>
 5dc:	fa5ff06f          	j	580 <main+0x64>
 5e0:	12cb0593          	addi	a1,s6,300 # 112c <board_name+0x12c>
 5e4:	01010513          	addi	a0,sp,16
 5e8:	e59ff0ef          	jal	ra,440 <strcmp>
 5ec:	00051a63          	bnez	a0,600 <main+0xe4>
 5f0:	00001537          	lui	a0,0x1
 5f4:	00c4a583          	lw	a1,12(s1)
 5f8:	13050513          	addi	a0,a0,304 # 1130 <board_name+0x130>
 5fc:	fddff06f          	j	5d8 <main+0xbc>
 600:	13cb8593          	addi	a1,s7,316 # 113c <board_name+0x13c>
 604:	01010513          	addi	a0,sp,16
 608:	e39ff0ef          	jal	ra,440 <strcmp>
 60c:	08051263          	bnez	a0,690 <main+0x174>
 610:	00001437          	lui	s0,0x1
 614:	00001cb7          	lui	s9,0x1
 618:	02000913          	li	s2,32
 61c:	05e00d13          	li	s10,94
 620:	20040d93          	addi	s11,s0,512 # 1200 <board_name+0x200>
 624:	0640006f          	j	688 <main+0x16c>
 628:	00f40733          	add	a4,s0,a5
 62c:	00074583          	lbu	a1,0(a4)
 630:	144c8513          	addi	a0,s9,324 # 1144 <board_name+0x144>
 634:	00f12623          	sw	a5,12(sp)
 638:	d0dff0ef          	jal	ra,344 <printf>
 63c:	00c12783          	lw	a5,12(sp)
 640:	00178793          	addi	a5,a5,1
 644:	ff2792e3          	bne	a5,s2,628 <main+0x10c>
 648:	00000793          	li	a5,0
 64c:	00f40733          	add	a4,s0,a5
 650:	00074503          	lbu	a0,0(a4)
 654:	fe050713          	addi	a4,a0,-32
 658:	0ff77713          	andi	a4,a4,255
 65c:	00ed7463          	bleu	a4,s10,664 <main+0x148>
 660:	02e00513          	li	a0,46
 664:	00f12623          	sw	a5,12(sp)
 668:	a29ff0ef          	jal	ra,90 <putchar>
 66c:	00c12783          	lw	a5,12(sp)
 670:	00178793          	addi	a5,a5,1
 674:	fd279ce3          	bne	a5,s2,64c <main+0x130>
 678:	00a00513          	li	a0,10
 67c:	02040413          	addi	s0,s0,32
 680:	a11ff0ef          	jal	ra,90 <putchar>
 684:	efb40ee3          	beq	s0,s11,580 <main+0x64>
 688:	00000793          	li	a5,0
 68c:	f9dff06f          	j	628 <main+0x10c>
 690:	148c0593          	addi	a1,s8,328 # 1148 <board_name+0x148>
 694:	01010513          	addi	a0,sp,16
 698:	da9ff0ef          	jal	ra,440 <strcmp>
 69c:	08051463          	bnez	a0,724 <main+0x208>
 6a0:	00002437          	lui	s0,0x2
 6a4:	e0040413          	addi	s0,s0,-512 # 1e00 <board_name+0xe00>
 6a8:	00001cb7          	lui	s9,0x1
 6ac:	02000913          	li	s2,32
 6b0:	05e00d13          	li	s10,94
 6b4:	00002db7          	lui	s11,0x2
 6b8:	0640006f          	j	71c <main+0x200>
 6bc:	00f40733          	add	a4,s0,a5
 6c0:	00074583          	lbu	a1,0(a4)
 6c4:	144c8513          	addi	a0,s9,324 # 1144 <board_name+0x144>
 6c8:	00f12623          	sw	a5,12(sp)
 6cc:	c79ff0ef          	jal	ra,344 <printf>
 6d0:	00c12783          	lw	a5,12(sp)
 6d4:	00178793          	addi	a5,a5,1
 6d8:	ff2792e3          	bne	a5,s2,6bc <main+0x1a0>
 6dc:	00000793          	li	a5,0
 6e0:	00f40733          	add	a4,s0,a5
 6e4:	00074503          	lbu	a0,0(a4)
 6e8:	fe050713          	addi	a4,a0,-32
 6ec:	0ff77713          	andi	a4,a4,255
 6f0:	00ed7463          	bleu	a4,s10,6f8 <main+0x1dc>
 6f4:	02e00513          	li	a0,46
 6f8:	00f12623          	sw	a5,12(sp)
 6fc:	995ff0ef          	jal	ra,90 <putchar>
 700:	00c12783          	lw	a5,12(sp)
 704:	00178793          	addi	a5,a5,1
 708:	fd279ce3          	bne	a5,s2,6e0 <main+0x1c4>
 70c:	00a00513          	li	a0,10
 710:	02040413          	addi	s0,s0,32
 714:	97dff0ef          	jal	ra,90 <putchar>
 718:	e7b404e3          	beq	s0,s11,580 <main+0x64>
 71c:	00000793          	li	a5,0
 720:	f9dff06f          	j	6bc <main+0x1a0>
 724:	000015b7          	lui	a1,0x1
 728:	15058593          	addi	a1,a1,336 # 1150 <board_name+0x150>
 72c:	01010513          	addi	a0,sp,16
 730:	d11ff0ef          	jal	ra,440 <strcmp>
 734:	00051a63          	bnez	a0,748 <main+0x22c>
 738:	00001537          	lui	a0,0x1
 73c:	15850513          	addi	a0,a0,344 # 1158 <board_name+0x158>
 740:	a09ff0ef          	jal	ra,148 <puts>
 744:	e3dff06f          	j	580 <main+0x64>
 748:	01014783          	lbu	a5,16(sp)
 74c:	e2078ae3          	beqz	a5,580 <main+0x64>
 750:	00001537          	lui	a0,0x1
 754:	01010593          	addi	a1,sp,16
 758:	16850513          	addi	a0,a0,360 # 1168 <board_name+0x168>
 75c:	e7dff06f          	j	5d8 <main+0xbc>
