
darksocv.o:     file format elf32-littleriscv


Disassembly of section .text:

00000000 <boot>:
   0:	000017b7          	lui	a5,0x1
   4:	ff010113          	addi	sp,sp,-16
   8:	00812423          	sw	s0,8(sp)
   c:	4ac7a403          	lw	s0,1196(a5) # 14ac <threads>
  10:	00112623          	sw	ra,12(sp)
  14:	00140713          	addi	a4,s0,1
  18:	00147413          	andi	s0,s0,1
  1c:	03040513          	addi	a0,s0,48
  20:	4ae7a623          	sw	a4,1196(a5)
  24:	06c000ef          	jal	ra,90 <putchar>
  28:	800007b7          	lui	a5,0x80000
  2c:	00078793          	mv	a5,a5
  30:	00041e63          	bnez	s0,4c <boot+0x4c>
  34:	03100713          	li	a4,49
  38:	00e12023          	sw	a4,0(sp)
  3c:	00100713          	li	a4,1
  40:	00e7a623          	sw	a4,12(a5) # 8000000c <io+0xc>
  44:	798000ef          	jal	ra,7dc <main>
  48:	ffdff06f          	j	44 <boot+0x44>
  4c:	00012703          	lw	a4,0(sp)
  50:	00e7a623          	sw	a4,12(a5)
  54:	0087d703          	lhu	a4,8(a5)
  58:	00174713          	xori	a4,a4,1
  5c:	00e79423          	sh	a4,8(a5)
  60:	00a7d703          	lhu	a4,10(a5)
  64:	00174713          	xori	a4,a4,1
  68:	00e79523          	sh	a4,10(a5)
  6c:	000781a3          	sb	zero,3(a5)
  70:	fe5ff06f          	j	54 <boot+0x54>

00000074 <getchar>:
  74:	800007b7          	lui	a5,0x80000
  78:	00078793          	mv	a5,a5
  7c:	0047c703          	lbu	a4,4(a5) # 80000004 <io+0x4>
  80:	00277713          	andi	a4,a4,2
  84:	fe070ce3          	beqz	a4,7c <getchar+0x8>
  88:	0057c503          	lbu	a0,5(a5)
  8c:	00008067          	ret

00000090 <putchar>:
  90:	800007b7          	lui	a5,0x80000
  94:	00a00713          	li	a4,10
  98:	00078793          	mv	a5,a5
  9c:	00e51c63          	bne	a0,a4,b4 <putchar+0x24>
  a0:	0047c703          	lbu	a4,4(a5) # 80000004 <io+0x4>
  a4:	00177713          	andi	a4,a4,1
  a8:	fe071ce3          	bnez	a4,a0 <putchar+0x10>
  ac:	00d00713          	li	a4,13
  b0:	00e782a3          	sb	a4,5(a5)
  b4:	0047c703          	lbu	a4,4(a5)
  b8:	00177713          	andi	a4,a4,1
  bc:	fe071ce3          	bnez	a4,b4 <putchar+0x24>
  c0:	0ff57713          	andi	a4,a0,255
  c4:	00e782a3          	sb	a4,5(a5)
  c8:	00070513          	mv	a0,a4
  cc:	00008067          	ret

000000d0 <gets>:
  d0:	fe810113          	addi	sp,sp,-24
  d4:	00812823          	sw	s0,16(sp)
  d8:	00912623          	sw	s1,12(sp)
  dc:	00112a23          	sw	ra,20(sp)
  e0:	00050493          	mv	s1,a0
  e4:	00050413          	mv	s0,a0
  e8:	fff58713          	addi	a4,a1,-1
  ec:	02070063          	beqz	a4,10c <gets+0x3c>
  f0:	00b12223          	sw	a1,4(sp)
  f4:	00e12023          	sw	a4,0(sp)
  f8:	f7dff0ef          	jal	ra,74 <getchar>
  fc:	00a00693          	li	a3,10
 100:	00012703          	lw	a4,0(sp)
 104:	00412583          	lw	a1,4(sp)
 108:	02d51863          	bne	a0,a3,138 <gets+0x68>
 10c:	00a00513          	li	a0,10
 110:	f81ff0ef          	jal	ra,90 <putchar>
 114:	00040023          	sb	zero,0(s0)
 118:	00941463          	bne	s0,s1,120 <gets+0x50>
 11c:	00000493          	li	s1,0
 120:	01412083          	lw	ra,20(sp)
 124:	01012403          	lw	s0,16(sp)
 128:	00048513          	mv	a0,s1
 12c:	00c12483          	lw	s1,12(sp)
 130:	01810113          	addi	sp,sp,24
 134:	00008067          	ret
 138:	00b12423          	sw	a1,8(sp)
 13c:	00e12223          	sw	a4,4(sp)
 140:	00d00693          	li	a3,13
 144:	00a12023          	sw	a0,0(sp)
 148:	fcd502e3          	beq	a0,a3,10c <gets+0x3c>
 14c:	f45ff0ef          	jal	ra,90 <putchar>
 150:	00012783          	lw	a5,0(sp)
 154:	00800693          	li	a3,8
 158:	00412703          	lw	a4,4(sp)
 15c:	00812583          	lw	a1,8(sp)
 160:	00d79e63          	bne	a5,a3,17c <gets+0xac>
 164:	00940863          	beq	s0,s1,174 <gets+0xa4>
 168:	fe040fa3          	sb	zero,-1(s0)
 16c:	00058713          	mv	a4,a1
 170:	fff40413          	addi	s0,s0,-1
 174:	00070593          	mv	a1,a4
 178:	f71ff06f          	j	e8 <gets+0x18>
 17c:	00f40023          	sb	a5,0(s0)
 180:	00140413          	addi	s0,s0,1
 184:	ff1ff06f          	j	174 <gets+0xa4>

00000188 <putstr>:
 188:	ff410113          	addi	sp,sp,-12
 18c:	00812223          	sw	s0,4(sp)
 190:	00112423          	sw	ra,8(sp)
 194:	00050413          	mv	s0,a0
 198:	00051663          	bnez	a0,1a4 <putstr+0x1c>
 19c:	00001437          	lui	s0,0x1
 1a0:	0cc40413          	addi	s0,s0,204 # 10cc <board_name+0xcc>
 1a4:	00044503          	lbu	a0,0(s0)
 1a8:	00051a63          	bnez	a0,1bc <putstr+0x34>
 1ac:	00812083          	lw	ra,8(sp)
 1b0:	00412403          	lw	s0,4(sp)
 1b4:	00c10113          	addi	sp,sp,12
 1b8:	00008067          	ret
 1bc:	00140413          	addi	s0,s0,1
 1c0:	ed1ff0ef          	jal	ra,90 <putchar>
 1c4:	fe1ff06f          	j	1a4 <putstr+0x1c>

000001c8 <puts>:
 1c8:	ff410113          	addi	sp,sp,-12
 1cc:	00112423          	sw	ra,8(sp)
 1d0:	fb9ff0ef          	jal	ra,188 <putstr>
 1d4:	00812083          	lw	ra,8(sp)
 1d8:	00a00513          	li	a0,10
 1dc:	00c10113          	addi	sp,sp,12
 1e0:	eb1ff06f          	j	90 <putchar>

000001e4 <putx>:
 1e4:	fdc10113          	addi	sp,sp,-36
 1e8:	000015b7          	lui	a1,0x1
 1ec:	00812e23          	sw	s0,28(sp)
 1f0:	01400613          	li	a2,20
 1f4:	00050413          	mv	s0,a0
 1f8:	08c58593          	addi	a1,a1,140 # 108c <board_name+0x8c>
 1fc:	00410513          	addi	a0,sp,4
 200:	00912c23          	sw	s1,24(sp)
 204:	02112023          	sw	ra,32(sp)
 208:	250000ef          	jal	ra,458 <memcpy>
 20c:	00410493          	addi	s1,sp,4
 210:	01800713          	li	a4,24
 214:	000016b7          	lui	a3,0x1
 218:	0004a783          	lw	a5,0(s1)
 21c:	00079c63          	bnez	a5,234 <putx+0x50>
 220:	02012083          	lw	ra,32(sp)
 224:	01c12403          	lw	s0,28(sp)
 228:	01812483          	lw	s1,24(sp)
 22c:	02410113          	addi	sp,sp,36
 230:	00008067          	ret
 234:	00100613          	li	a2,1
 238:	00c78463          	beq	a5,a2,240 <putx+0x5c>
 23c:	04f46663          	bltu	s0,a5,288 <putx+0xa4>
 240:	00470793          	addi	a5,a4,4
 244:	00f457b3          	srl	a5,s0,a5
 248:	0d468613          	addi	a2,a3,212 # 10d4 <board_name+0xd4>
 24c:	00f7f793          	andi	a5,a5,15
 250:	00c787b3          	add	a5,a5,a2
 254:	0007c503          	lbu	a0,0(a5)
 258:	00e12023          	sw	a4,0(sp)
 25c:	e35ff0ef          	jal	ra,90 <putchar>
 260:	00012703          	lw	a4,0(sp)
 264:	00e457b3          	srl	a5,s0,a4
 268:	00001737          	lui	a4,0x1
 26c:	0d470613          	addi	a2,a4,212 # 10d4 <board_name+0xd4>
 270:	00f7f793          	andi	a5,a5,15
 274:	00c787b3          	add	a5,a5,a2
 278:	0007c503          	lbu	a0,0(a5)
 27c:	e15ff0ef          	jal	ra,90 <putchar>
 280:	00012703          	lw	a4,0(sp)
 284:	000016b7          	lui	a3,0x1
 288:	ff870713          	addi	a4,a4,-8
 28c:	00448493          	addi	s1,s1,4
 290:	f89ff06f          	j	218 <putx+0x34>

00000294 <putd>:
 294:	fc810113          	addi	sp,sp,-56
 298:	000015b7          	lui	a1,0x1
 29c:	02912623          	sw	s1,44(sp)
 2a0:	02c00613          	li	a2,44
 2a4:	00050493          	mv	s1,a0
 2a8:	0a058593          	addi	a1,a1,160 # 10a0 <board_name+0xa0>
 2ac:	00010513          	mv	a0,sp
 2b0:	02112a23          	sw	ra,52(sp)
 2b4:	02812823          	sw	s0,48(sp)
 2b8:	1a0000ef          	jal	ra,458 <memcpy>
 2bc:	0004d863          	bgez	s1,2cc <putd+0x38>
 2c0:	02d00513          	li	a0,45
 2c4:	dcdff0ef          	jal	ra,90 <putchar>
 2c8:	fff00493          	li	s1,-1
 2cc:	00010413          	mv	s0,sp
 2d0:	00042583          	lw	a1,0(s0)
 2d4:	00059c63          	bnez	a1,2ec <putd+0x58>
 2d8:	03412083          	lw	ra,52(sp)
 2dc:	03012403          	lw	s0,48(sp)
 2e0:	02c12483          	lw	s1,44(sp)
 2e4:	03810113          	addi	sp,sp,56
 2e8:	00008067          	ret
 2ec:	00100713          	li	a4,1
 2f0:	00e58463          	beq	a1,a4,2f8 <putd+0x64>
 2f4:	02b4c463          	blt	s1,a1,31c <putd+0x88>
 2f8:	00048513          	mv	a0,s1
 2fc:	45c000ef          	jal	ra,758 <__divsi3>
 300:	00a00593          	li	a1,10
 304:	45c000ef          	jal	ra,760 <__modsi3>
 308:	000017b7          	lui	a5,0x1
 30c:	0e878713          	addi	a4,a5,232 # 10e8 <board_name+0xe8>
 310:	00a70533          	add	a0,a4,a0
 314:	00054503          	lbu	a0,0(a0)
 318:	d79ff0ef          	jal	ra,90 <putchar>
 31c:	00440413          	addi	s0,s0,4
 320:	fb1ff06f          	j	2d0 <putd+0x3c>

00000324 <printf>:
 324:	fdc10113          	addi	sp,sp,-36
 328:	02f12023          	sw	a5,32(sp)
 32c:	01010793          	addi	a5,sp,16
 330:	00812423          	sw	s0,8(sp)
 334:	00112623          	sw	ra,12(sp)
 338:	00912223          	sw	s1,4(sp)
 33c:	00050413          	mv	s0,a0
 340:	00b12823          	sw	a1,16(sp)
 344:	00c12a23          	sw	a2,20(sp)
 348:	00d12c23          	sw	a3,24(sp)
 34c:	00e12e23          	sw	a4,28(sp)
 350:	00f12023          	sw	a5,0(sp)
 354:	00044503          	lbu	a0,0(s0)
 358:	00051c63          	bnez	a0,370 <printf+0x4c>
 35c:	00c12083          	lw	ra,12(sp)
 360:	00812403          	lw	s0,8(sp)
 364:	00412483          	lw	s1,4(sp)
 368:	02410113          	addi	sp,sp,36
 36c:	00008067          	ret
 370:	02500793          	li	a5,37
 374:	00140493          	addi	s1,s0,1
 378:	06f51a63          	bne	a0,a5,3ec <printf+0xc8>
 37c:	00144503          	lbu	a0,1(s0)
 380:	07300793          	li	a5,115
 384:	02f51063          	bne	a0,a5,3a4 <printf+0x80>
 388:	00012783          	lw	a5,0(sp)
 38c:	0007a503          	lw	a0,0(a5)
 390:	00478713          	addi	a4,a5,4
 394:	00e12023          	sw	a4,0(sp)
 398:	df1ff0ef          	jal	ra,188 <putstr>
 39c:	00148413          	addi	s0,s1,1
 3a0:	fb5ff06f          	j	354 <printf+0x30>
 3a4:	07800793          	li	a5,120
 3a8:	00f51e63          	bne	a0,a5,3c4 <printf+0xa0>
 3ac:	00012783          	lw	a5,0(sp)
 3b0:	0007a503          	lw	a0,0(a5)
 3b4:	00478713          	addi	a4,a5,4
 3b8:	00e12023          	sw	a4,0(sp)
 3bc:	e29ff0ef          	jal	ra,1e4 <putx>
 3c0:	fddff06f          	j	39c <printf+0x78>
 3c4:	06400793          	li	a5,100
 3c8:	00f51e63          	bne	a0,a5,3e4 <printf+0xc0>
 3cc:	00012783          	lw	a5,0(sp)
 3d0:	0007a503          	lw	a0,0(a5)
 3d4:	00478713          	addi	a4,a5,4
 3d8:	00e12023          	sw	a4,0(sp)
 3dc:	eb9ff0ef          	jal	ra,294 <putd>
 3e0:	fbdff06f          	j	39c <printf+0x78>
 3e4:	cadff0ef          	jal	ra,90 <putchar>
 3e8:	fb5ff06f          	j	39c <printf+0x78>
 3ec:	ca5ff0ef          	jal	ra,90 <putchar>
 3f0:	00040493          	mv	s1,s0
 3f4:	fa9ff06f          	j	39c <printf+0x78>

000003f8 <strncmp>:
 3f8:	fff60613          	addi	a2,a2,-1
 3fc:	00000793          	li	a5,0
 400:	00f50733          	add	a4,a0,a5
 404:	00074683          	lbu	a3,0(a4)
 408:	00f58733          	add	a4,a1,a5
 40c:	00074703          	lbu	a4,0(a4)
 410:	00c78a63          	beq	a5,a2,424 <strncmp+0x2c>
 414:	00068863          	beqz	a3,424 <strncmp+0x2c>
 418:	00070663          	beqz	a4,424 <strncmp+0x2c>
 41c:	00178793          	addi	a5,a5,1
 420:	fee680e3          	beq	a3,a4,400 <strncmp+0x8>
 424:	40e68533          	sub	a0,a3,a4
 428:	00008067          	ret

0000042c <strcmp>:
 42c:	fff00613          	li	a2,-1
 430:	fc9ff06f          	j	3f8 <strncmp>

00000434 <strlen>:
 434:	00000793          	li	a5,0
 438:	00f50733          	add	a4,a0,a5
 43c:	00074703          	lbu	a4,0(a4)
 440:	00070863          	beqz	a4,450 <strlen+0x1c>
 444:	00178793          	addi	a5,a5,1
 448:	00f50733          	add	a4,a0,a5
 44c:	fe0716e3          	bnez	a4,438 <strlen+0x4>
 450:	00078513          	mv	a0,a5
 454:	00008067          	ret

00000458 <memcpy>:
 458:	00000793          	li	a5,0
 45c:	00c79463          	bne	a5,a2,464 <memcpy+0xc>
 460:	00008067          	ret
 464:	00f58733          	add	a4,a1,a5
 468:	00074683          	lbu	a3,0(a4)
 46c:	00f50733          	add	a4,a0,a5
 470:	00178793          	addi	a5,a5,1
 474:	00d70023          	sb	a3,0(a4)
 478:	fe5ff06f          	j	45c <memcpy+0x4>

0000047c <memset>:
 47c:	00c50633          	add	a2,a0,a2
 480:	00050793          	mv	a5,a0
 484:	00c79463          	bne	a5,a2,48c <memset+0x10>
 488:	00008067          	ret
 48c:	00178793          	addi	a5,a5,1
 490:	feb78fa3          	sb	a1,-1(a5)
 494:	ff1ff06f          	j	484 <memset+0x8>

00000498 <strtok>:
 498:	fec10113          	addi	sp,sp,-20
 49c:	00812623          	sw	s0,12(sp)
 4a0:	00050413          	mv	s0,a0
 4a4:	00058513          	mv	a0,a1
 4a8:	00912423          	sw	s1,8(sp)
 4ac:	00112823          	sw	ra,16(sp)
 4b0:	00058493          	mv	s1,a1
 4b4:	f81ff0ef          	jal	ra,434 <strlen>
 4b8:	00050693          	mv	a3,a0
 4bc:	00041863          	bnez	s0,4cc <strtok+0x34>
 4c0:	000017b7          	lui	a5,0x1
 4c4:	4b07a403          	lw	s0,1200(a5) # 14b0 <nxt.1626>
 4c8:	04040863          	beqz	s0,518 <strtok+0x80>
 4cc:	00040793          	mv	a5,s0
 4d0:	0007c703          	lbu	a4,0(a5)
 4d4:	00071863          	bnez	a4,4e4 <strtok+0x4c>
 4d8:	000017b7          	lui	a5,0x1
 4dc:	4a07a823          	sw	zero,1200(a5) # 14b0 <nxt.1626>
 4e0:	0380006f          	j	518 <strtok+0x80>
 4e4:	00068613          	mv	a2,a3
 4e8:	00078513          	mv	a0,a5
 4ec:	00048593          	mv	a1,s1
 4f0:	00d12223          	sw	a3,4(sp)
 4f4:	00f12023          	sw	a5,0(sp)
 4f8:	f01ff0ef          	jal	ra,3f8 <strncmp>
 4fc:	00012783          	lw	a5,0(sp)
 500:	00412683          	lw	a3,4(sp)
 504:	00178713          	addi	a4,a5,1
 508:	02051463          	bnez	a0,530 <strtok+0x98>
 50c:	00078023          	sb	zero,0(a5)
 510:	000017b7          	lui	a5,0x1
 514:	4ae7a823          	sw	a4,1200(a5) # 14b0 <nxt.1626>
 518:	00040513          	mv	a0,s0
 51c:	01012083          	lw	ra,16(sp)
 520:	00c12403          	lw	s0,12(sp)
 524:	00812483          	lw	s1,8(sp)
 528:	01410113          	addi	sp,sp,20
 52c:	00008067          	ret
 530:	00070793          	mv	a5,a4
 534:	f9dff06f          	j	4d0 <strtok+0x38>

00000538 <atoi>:
 538:	00000693          	li	a3,0
 53c:	00000793          	li	a5,0
 540:	02d00613          	li	a2,45
 544:	00051c63          	bnez	a0,55c <atoi+0x24>
 548:	02069e63          	bnez	a3,584 <atoi+0x4c>
 54c:	00078513          	mv	a0,a5
 550:	00008067          	ret
 554:	00100693          	li	a3,1
 558:	0240006f          	j	57c <atoi+0x44>
 55c:	00054703          	lbu	a4,0(a0)
 560:	fe0704e3          	beqz	a4,548 <atoi+0x10>
 564:	fec708e3          	beq	a4,a2,554 <atoi+0x1c>
 568:	00379593          	slli	a1,a5,0x3
 56c:	fd070713          	addi	a4,a4,-48
 570:	00b70733          	add	a4,a4,a1
 574:	00179793          	slli	a5,a5,0x1
 578:	00f707b3          	add	a5,a4,a5
 57c:	00150513          	addi	a0,a0,1
 580:	fc5ff06f          	j	544 <atoi+0xc>
 584:	40f007b3          	neg	a5,a5
 588:	fc5ff06f          	j	54c <atoi+0x14>

0000058c <xtoi>:
 58c:	00050693          	mv	a3,a0
 590:	03900613          	li	a2,57
 594:	00000513          	li	a0,0
 598:	00068663          	beqz	a3,5a4 <xtoi+0x18>
 59c:	0006c783          	lbu	a5,0(a3) # 1000 <board_name>
 5a0:	00079463          	bnez	a5,5a8 <xtoi+0x1c>
 5a4:	00008067          	ret
 5a8:	00451713          	slli	a4,a0,0x4
 5ac:	00f66a63          	bltu	a2,a5,5c0 <xtoi+0x34>
 5b0:	fd078793          	addi	a5,a5,-48
 5b4:	00e78533          	add	a0,a5,a4
 5b8:	00168693          	addi	a3,a3,1
 5bc:	fddff06f          	j	598 <xtoi+0xc>
 5c0:	05f7f793          	andi	a5,a5,95
 5c4:	fc978793          	addi	a5,a5,-55
 5c8:	fedff06f          	j	5b4 <xtoi+0x28>

000005cc <mac>:
 5cc:	857f                	0x857f
 5ce:	00c5                	addi	ra,ra,17
 5d0:	00008067          	ret

000005d4 <__umulsi3>:
 5d4:	00050793          	mv	a5,a0
 5d8:	00000513          	li	a0,0
 5dc:	02b7e063          	bltu	a5,a1,5fc <__umulsi3+0x28>
 5e0:	02059263          	bnez	a1,604 <__umulsi3+0x30>
 5e4:	00008067          	ret
 5e8:	0017f713          	andi	a4,a5,1
 5ec:	00070463          	beqz	a4,5f4 <__umulsi3+0x20>
 5f0:	00b50533          	add	a0,a0,a1
 5f4:	0017d793          	srli	a5,a5,0x1
 5f8:	00159593          	slli	a1,a1,0x1
 5fc:	fe0796e3          	bnez	a5,5e8 <__umulsi3+0x14>
 600:	00008067          	ret
 604:	0015f713          	andi	a4,a1,1
 608:	00070463          	beqz	a4,610 <__umulsi3+0x3c>
 60c:	00f50533          	add	a0,a0,a5
 610:	00179793          	slli	a5,a5,0x1
 614:	0015d593          	srli	a1,a1,0x1
 618:	fc9ff06f          	j	5e0 <__umulsi3+0xc>

0000061c <__mulsi3>:
 61c:	ff410113          	addi	sp,sp,-12
 620:	00912023          	sw	s1,0(sp)
 624:	00112423          	sw	ra,8(sp)
 628:	00812223          	sw	s0,4(sp)
 62c:	00000493          	li	s1,0
 630:	00055663          	bgez	a0,63c <__mulsi3+0x20>
 634:	40a00533          	neg	a0,a0
 638:	00100493          	li	s1,1
 63c:	00000413          	li	s0,0
 640:	0005d663          	bgez	a1,64c <__mulsi3+0x30>
 644:	40b005b3          	neg	a1,a1
 648:	00100413          	li	s0,1
 64c:	f89ff0ef          	jal	ra,5d4 <__umulsi3>
 650:	00050793          	mv	a5,a0
 654:	00848463          	beq	s1,s0,65c <__mulsi3+0x40>
 658:	40a007b3          	neg	a5,a0
 65c:	00812083          	lw	ra,8(sp)
 660:	00412403          	lw	s0,4(sp)
 664:	00012483          	lw	s1,0(sp)
 668:	00078513          	mv	a0,a5
 66c:	00c10113          	addi	sp,sp,12
 670:	00008067          	ret

00000674 <__udiv_umod_si3>:
 674:	00100793          	li	a5,1
 678:	00059a63          	bnez	a1,68c <__udiv_umod_si3+0x18>
 67c:	00058513          	mv	a0,a1
 680:	00008067          	ret
 684:	00179793          	slli	a5,a5,0x1
 688:	00159593          	slli	a1,a1,0x1
 68c:	fea5ece3          	bltu	a1,a0,684 <__udiv_umod_si3+0x10>
 690:	00058713          	mv	a4,a1
 694:	00000593          	li	a1,0
 698:	00050463          	beqz	a0,6a0 <__udiv_umod_si3+0x2c>
 69c:	00079863          	bnez	a5,6ac <__udiv_umod_si3+0x38>
 6a0:	fc061ee3          	bnez	a2,67c <__udiv_umod_si3+0x8>
 6a4:	00050593          	mv	a1,a0
 6a8:	fd5ff06f          	j	67c <__udiv_umod_si3+0x8>
 6ac:	00e56663          	bltu	a0,a4,6b8 <__udiv_umod_si3+0x44>
 6b0:	40e50533          	sub	a0,a0,a4
 6b4:	00f585b3          	add	a1,a1,a5
 6b8:	0017d793          	srli	a5,a5,0x1
 6bc:	00175713          	srli	a4,a4,0x1
 6c0:	fd9ff06f          	j	698 <__udiv_umod_si3+0x24>

000006c4 <__udivsi3>:
 6c4:	00100613          	li	a2,1
 6c8:	fadff06f          	j	674 <__udiv_umod_si3>

000006cc <__umodsi3>:
 6cc:	00000613          	li	a2,0
 6d0:	fa5ff06f          	j	674 <__udiv_umod_si3>

000006d4 <__div_mod_si3>:
 6d4:	06058e63          	beqz	a1,750 <__div_mod_si3+0x7c>
 6d8:	ff010113          	addi	sp,sp,-16
 6dc:	00812423          	sw	s0,8(sp)
 6e0:	00112623          	sw	ra,12(sp)
 6e4:	00912223          	sw	s1,4(sp)
 6e8:	00060793          	mv	a5,a2
 6ec:	00000413          	li	s0,0
 6f0:	00055663          	bgez	a0,6fc <__div_mod_si3+0x28>
 6f4:	40a00533          	neg	a0,a0
 6f8:	00100413          	li	s0,1
 6fc:	00000493          	li	s1,0
 700:	0005d663          	bgez	a1,70c <__div_mod_si3+0x38>
 704:	40b005b3          	neg	a1,a1
 708:	00100493          	li	s1,1
 70c:	00078613          	mv	a2,a5
 710:	00f12023          	sw	a5,0(sp)
 714:	f61ff0ef          	jal	ra,674 <__udiv_umod_si3>
 718:	00012783          	lw	a5,0(sp)
 71c:	00050593          	mv	a1,a0
 720:	02078263          	beqz	a5,744 <__div_mod_si3+0x70>
 724:	00940463          	beq	s0,s1,72c <__div_mod_si3+0x58>
 728:	40a005b3          	neg	a1,a0
 72c:	00c12083          	lw	ra,12(sp)
 730:	00812403          	lw	s0,8(sp)
 734:	00412483          	lw	s1,4(sp)
 738:	00058513          	mv	a0,a1
 73c:	01010113          	addi	sp,sp,16
 740:	00008067          	ret
 744:	fe0404e3          	beqz	s0,72c <__div_mod_si3+0x58>
 748:	40a005b3          	neg	a1,a0
 74c:	fe1ff06f          	j	72c <__div_mod_si3+0x58>
 750:	00058513          	mv	a0,a1
 754:	00008067          	ret

00000758 <__divsi3>:
 758:	00100613          	li	a2,1
 75c:	f79ff06f          	j	6d4 <__div_mod_si3>

00000760 <__modsi3>:
 760:	00000613          	li	a2,0
 764:	f71ff06f          	j	6d4 <__div_mod_si3>

00000768 <banner>:
 768:	ee010113          	addi	sp,sp,-288
 76c:	000015b7          	lui	a1,0x1
 770:	10d00613          	li	a2,269
 774:	39c58593          	addi	a1,a1,924 # 139c <board_name+0x39c>
 778:	00410513          	addi	a0,sp,4
 77c:	10112e23          	sw	ra,284(sp)
 780:	10812c23          	sw	s0,280(sp)
 784:	10912a23          	sw	s1,276(sp)
 788:	cd1ff0ef          	jal	ra,458 <memcpy>
 78c:	00a00513          	li	a0,10
 790:	901ff0ef          	jal	ra,90 <putchar>
 794:	00410413          	addi	s0,sp,4
 798:	00044783          	lbu	a5,0(s0)
 79c:	00079c63          	bnez	a5,7b4 <banner+0x4c>
 7a0:	11c12083          	lw	ra,284(sp)
 7a4:	11812403          	lw	s0,280(sp)
 7a8:	11412483          	lw	s1,276(sp)
 7ac:	12010113          	addi	sp,sp,288
 7b0:	00008067          	ret
 7b4:	00240413          	addi	s0,s0,2
 7b8:	fff44483          	lbu	s1,-1(s0)
 7bc:	fff48493          	addi	s1,s1,-1
 7c0:	fff00713          	li	a4,-1
 7c4:	fce48ae3          	beq	s1,a4,798 <banner+0x30>
 7c8:	00078513          	mv	a0,a5
 7cc:	00f12023          	sw	a5,0(sp)
 7d0:	8c1ff0ef          	jal	ra,90 <putchar>
 7d4:	00012783          	lw	a5,0(sp)
 7d8:	fe5ff06f          	j	7bc <banner+0x54>

Disassembly of section .text.startup:

000007dc <main>:
 7dc:	f7810113          	addi	sp,sp,-136
 7e0:	08112223          	sw	ra,132(sp)
 7e4:	08812023          	sw	s0,128(sp)
 7e8:	06912e23          	sw	s1,124(sp)
 7ec:	80000437          	lui	s0,0x80000
 7f0:	f79ff0ef          	jal	ra,768 <banner>
 7f4:	00044783          	lbu	a5,0(s0) # 80000000 <io+0x0>
 7f8:	00001737          	lui	a4,0x1
 7fc:	00070713          	mv	a4,a4
 800:	00279793          	slli	a5,a5,0x2
 804:	00e787b3          	add	a5,a5,a4
 808:	00044603          	lbu	a2,0(s0)
 80c:	0007a583          	lw	a1,0(a5)
 810:	00001537          	lui	a0,0x1
 814:	10450513          	addi	a0,a0,260 # 1104 <board_name+0x104>
 818:	b0dff0ef          	jal	ra,324 <printf>
 81c:	000015b7          	lui	a1,0x1
 820:	00001537          	lui	a0,0x1
 824:	11858593          	addi	a1,a1,280 # 1118 <board_name+0x118>
 828:	13850513          	addi	a0,a0,312 # 1138 <board_name+0x138>
 82c:	af9ff0ef          	jal	ra,324 <printf>
 830:	00040793          	mv	a5,s0
 834:	0017c483          	lbu	s1,1(a5)
 838:	0027c303          	lbu	t1,2(a5)
 83c:	000017b7          	lui	a5,0x1
 840:	4ac7a683          	lw	a3,1196(a5) # 14ac <threads>
 844:	00040613          	mv	a2,s0
 848:	00100713          	li	a4,1
 84c:	00c12023          	sw	a2,0(sp)
 850:	0ff4f493          	andi	s1,s1,255
 854:	0ff37313          	andi	t1,t1,255
 858:	00078413          	mv	s0,a5
 85c:	16d74263          	blt	a4,a3,9c0 <main+0x1e4>
 860:	00001737          	lui	a4,0x1
 864:	4a870713          	addi	a4,a4,1192 # 14a8 <board_name+0x4a8>
 868:	01000613          	li	a2,16
 86c:	01000593          	li	a1,16
 870:	3e800513          	li	a0,1000
 874:	00e12423          	sw	a4,8(sp)
 878:	00612223          	sw	t1,4(sp)
 87c:	d51ff0ef          	jal	ra,5cc <mac>
 880:	4e800793          	li	a5,1256
 884:	00412303          	lw	t1,4(sp)
 888:	00812703          	lw	a4,8(sp)
 88c:	14f50063          	beq	a0,a5,9cc <main+0x1f0>
 890:	000017b7          	lui	a5,0x1
 894:	4a878793          	addi	a5,a5,1192 # 14a8 <board_name+0x4a8>
 898:	000016b7          	lui	a3,0x1
 89c:	00001537          	lui	a0,0x1
 8a0:	15868693          	addi	a3,a3,344 # 1158 <board_name+0x158>
 8a4:	00030613          	mv	a2,t1
 8a8:	00048593          	mv	a1,s1
 8ac:	16050513          	addi	a0,a0,352 # 1160 <board_name+0x160>
 8b0:	a75ff0ef          	jal	ra,324 <printf>
 8b4:	00012783          	lw	a5,0(sp)
 8b8:	00001537          	lui	a0,0x1
 8bc:	18850513          	addi	a0,a0,392 # 1188 <board_name+0x188>
 8c0:	0067d583          	lhu	a1,6(a5)
 8c4:	4a042623          	sw	zero,1196(s0)
 8c8:	a5dff0ef          	jal	ra,324 <printf>
 8cc:	00012783          	lw	a5,0(sp)
 8d0:	000f45b7          	lui	a1,0xf4
 8d4:	24058593          	addi	a1,a1,576 # f4240 <nxt.1626+0xf2d90>
 8d8:	0017c503          	lbu	a0,1(a5)
 8dc:	0027c783          	lbu	a5,2(a5)
 8e0:	0ff7f413          	andi	s0,a5,255
 8e4:	00012783          	lw	a5,0(sp)
 8e8:	00c7a483          	lw	s1,12(a5)
 8ec:	d31ff0ef          	jal	ra,61c <__mulsi3>
 8f0:	00541793          	slli	a5,s0,0x5
 8f4:	408787b3          	sub	a5,a5,s0
 8f8:	00279793          	slli	a5,a5,0x2
 8fc:	008787b3          	add	a5,a5,s0
 900:	00379793          	slli	a5,a5,0x3
 904:	00f50533          	add	a0,a0,a5
 908:	00148593          	addi	a1,s1,1
 90c:	db9ff0ef          	jal	ra,6c4 <__udivsi3>
 910:	00050593          	mv	a1,a0
 914:	00001537          	lui	a0,0x1
 918:	1a450513          	addi	a0,a0,420 # 11a4 <board_name+0x1a4>
 91c:	a09ff0ef          	jal	ra,324 <printf>
 920:	00a00513          	li	a0,10
 924:	f6cff0ef          	jal	ra,90 <putchar>
 928:	00001537          	lui	a0,0x1
 92c:	1c050513          	addi	a0,a0,448 # 11c0 <board_name+0x1c0>
 930:	899ff0ef          	jal	ra,1c8 <puts>
 934:	000017b7          	lui	a5,0x1
 938:	1d878513          	addi	a0,a5,472 # 11d8 <board_name+0x1d8>
 93c:	9e9ff0ef          	jal	ra,324 <printf>
 940:	04000613          	li	a2,64
 944:	00000593          	li	a1,0
 948:	03c10513          	addi	a0,sp,60
 94c:	b31ff0ef          	jal	ra,47c <memset>
 950:	04000593          	li	a1,64
 954:	03c10513          	addi	a0,sp,60
 958:	f78ff0ef          	jal	ra,d0 <gets>
 95c:	00000413          	li	s0,0
 960:	03c10513          	addi	a0,sp,60
 964:	000014b7          	lui	s1,0x1
 968:	1dc48593          	addi	a1,s1,476 # 11dc <board_name+0x1dc>
 96c:	b2dff0ef          	jal	ra,498 <strtok>
 970:	00241793          	slli	a5,s0,0x2
 974:	07c10713          	addi	a4,sp,124
 978:	00f707b3          	add	a5,a4,a5
 97c:	faa7a023          	sw	a0,-96(a5)
 980:	00050a63          	beqz	a0,994 <main+0x1b8>
 984:	00140413          	addi	s0,s0,1
 988:	00800793          	li	a5,8
 98c:	00000513          	li	a0,0
 990:	fcf41ce3          	bne	s0,a5,968 <main+0x18c>
 994:	01c12403          	lw	s0,28(sp)
 998:	f8040ee3          	beqz	s0,934 <main+0x158>
 99c:	000015b7          	lui	a1,0x1
 9a0:	1e058593          	addi	a1,a1,480 # 11e0 <board_name+0x1e0>
 9a4:	00040513          	mv	a0,s0
 9a8:	a85ff0ef          	jal	ra,42c <strcmp>
 9ac:	02051663          	bnez	a0,9d8 <main+0x1fc>
 9b0:	00001537          	lui	a0,0x1
 9b4:	1e850513          	addi	a0,a0,488 # 11e8 <board_name+0x1e8>
 9b8:	96dff0ef          	jal	ra,324 <printf>
 9bc:	f79ff06f          	j	934 <main+0x158>
 9c0:	00001737          	lui	a4,0x1
 9c4:	0f470713          	addi	a4,a4,244 # 10f4 <board_name+0xf4>
 9c8:	ea1ff06f          	j	868 <main+0x8c>
 9cc:	000017b7          	lui	a5,0x1
 9d0:	0fc78793          	addi	a5,a5,252 # 10fc <board_name+0xfc>
 9d4:	ec5ff06f          	j	898 <main+0xbc>
 9d8:	000015b7          	lui	a1,0x1
 9dc:	1f058593          	addi	a1,a1,496 # 11f0 <board_name+0x1f0>
 9e0:	00040513          	mv	a0,s0
 9e4:	a49ff0ef          	jal	ra,42c <strcmp>
 9e8:	00051a63          	bnez	a0,9fc <main+0x220>
 9ec:	d7dff0ef          	jal	ra,768 <banner>
 9f0:	00001537          	lui	a0,0x1
 9f4:	1f850513          	addi	a0,a0,504 # 11f8 <board_name+0x1f8>
 9f8:	f39ff06f          	j	930 <main+0x154>
 9fc:	000015b7          	lui	a1,0x1
 a00:	21058593          	addi	a1,a1,528 # 1210 <board_name+0x210>
 a04:	00040513          	mv	a0,s0
 a08:	a25ff0ef          	jal	ra,42c <strcmp>
 a0c:	0a051863          	bnez	a0,abc <main+0x2e0>
 a10:	02012403          	lw	s0,32(sp)
 a14:	00040863          	beqz	s0,a24 <main+0x248>
 a18:	00040513          	mv	a0,s0
 a1c:	b71ff0ef          	jal	ra,58c <xtoi>
 a20:	00050413          	mv	s0,a0
 a24:	10040793          	addi	a5,s0,256
 a28:	00f12223          	sw	a5,4(sp)
 a2c:	000014b7          	lui	s1,0x1
 a30:	00040593          	mv	a1,s0
 a34:	21848513          	addi	a0,s1,536 # 1218 <board_name+0x218>
 a38:	8edff0ef          	jal	ra,324 <printf>
 a3c:	00000713          	li	a4,0
 a40:	00001637          	lui	a2,0x1
 a44:	00e406b3          	add	a3,s0,a4
 a48:	0006c583          	lbu	a1,0(a3)
 a4c:	22060513          	addi	a0,a2,544 # 1220 <board_name+0x220>
 a50:	00e12423          	sw	a4,8(sp)
 a54:	8d1ff0ef          	jal	ra,324 <printf>
 a58:	00812703          	lw	a4,8(sp)
 a5c:	01000693          	li	a3,16
 a60:	00001637          	lui	a2,0x1
 a64:	00170713          	addi	a4,a4,1
 a68:	fcd71ee3          	bne	a4,a3,a44 <main+0x268>
 a6c:	00000713          	li	a4,0
 a70:	00e406b3          	add	a3,s0,a4
 a74:	0006c503          	lbu	a0,0(a3)
 a78:	05e00613          	li	a2,94
 a7c:	fe050693          	addi	a3,a0,-32
 a80:	0ff6f693          	andi	a3,a3,255
 a84:	00d67463          	bleu	a3,a2,a8c <main+0x2b0>
 a88:	02e00513          	li	a0,46
 a8c:	00e12423          	sw	a4,8(sp)
 a90:	e00ff0ef          	jal	ra,90 <putchar>
 a94:	00812703          	lw	a4,8(sp)
 a98:	01000693          	li	a3,16
 a9c:	00170713          	addi	a4,a4,1
 aa0:	fcd718e3          	bne	a4,a3,a70 <main+0x294>
 aa4:	00a00513          	li	a0,10
 aa8:	de8ff0ef          	jal	ra,90 <putchar>
 aac:	00412783          	lw	a5,4(sp)
 ab0:	01040413          	addi	s0,s0,16
 ab4:	f6f41ee3          	bne	s0,a5,a30 <main+0x254>
 ab8:	e7dff06f          	j	934 <main+0x158>
 abc:	000015b7          	lui	a1,0x1
 ac0:	00200613          	li	a2,2
 ac4:	22458593          	addi	a1,a1,548 # 1224 <board_name+0x224>
 ac8:	00040513          	mv	a0,s0
 acc:	92dff0ef          	jal	ra,3f8 <strncmp>
 ad0:	00050e63          	beqz	a0,aec <main+0x310>
 ad4:	000015b7          	lui	a1,0x1
 ad8:	00200613          	li	a2,2
 adc:	22858593          	addi	a1,a1,552 # 1228 <board_name+0x228>
 ae0:	00040513          	mv	a0,s0
 ae4:	915ff0ef          	jal	ra,3f8 <strncmp>
 ae8:	1e051663          	bnez	a0,cd4 <main+0x4f8>
 aec:	00244703          	lbu	a4,2(s0)
 af0:	06d00793          	li	a5,109
 af4:	06f71263          	bne	a4,a5,b58 <main+0x37c>
 af8:	02012503          	lw	a0,32(sp)
 afc:	a91ff0ef          	jal	ra,58c <xtoi>
 b00:	00a12a23          	sw	a0,20(sp)
 b04:	00200793          	li	a5,2
 b08:	00300713          	li	a4,3
 b0c:	00e12823          	sw	a4,16(sp)
 b10:	00178713          	addi	a4,a5,1
 b14:	00e12623          	sw	a4,12(sp)
 b18:	00279793          	slli	a5,a5,0x2
 b1c:	07c10713          	addi	a4,sp,124
 b20:	00f707b3          	add	a5,a4,a5
 b24:	fa07a503          	lw	a0,-96(a5)
 b28:	00000493          	li	s1,0
 b2c:	a61ff0ef          	jal	ra,58c <xtoi>
 b30:	00a12223          	sw	a0,4(sp)
 b34:	00050593          	mv	a1,a0
 b38:	00001537          	lui	a0,0x1
 b3c:	21850513          	addi	a0,a0,536 # 1218 <board_name+0x218>
 b40:	fe4ff0ef          	jal	ra,324 <printf>
 b44:	01412783          	lw	a5,20(sp)
 b48:	02979263          	bne	a5,s1,b6c <main+0x390>
 b4c:	00a00513          	li	a0,10
 b50:	d40ff0ef          	jal	ra,90 <putchar>
 b54:	de1ff06f          	j	934 <main+0x158>
 b58:	00100713          	li	a4,1
 b5c:	00e12a23          	sw	a4,20(sp)
 b60:	00100793          	li	a5,1
 b64:	00200713          	li	a4,2
 b68:	fa5ff06f          	j	b0c <main+0x330>
 b6c:	01012783          	lw	a5,16(sp)
 b70:	00044703          	lbu	a4,0(s0)
 b74:	00f407b3          	add	a5,s0,a5
 b78:	00f12423          	sw	a5,8(sp)
 b7c:	07200793          	li	a5,114
 b80:	08f71663          	bne	a4,a5,c0c <main+0x430>
 b84:	00812783          	lw	a5,8(sp)
 b88:	0007c703          	lbu	a4,0(a5)
 b8c:	06200793          	li	a5,98
 b90:	00f71e63          	bne	a4,a5,bac <main+0x3d0>
 b94:	00412783          	lw	a5,4(sp)
 b98:	009787b3          	add	a5,a5,s1
 b9c:	0007c583          	lbu	a1,0(a5)
 ba0:	000017b7          	lui	a5,0x1
 ba4:	22078513          	addi	a0,a5,544 # 1220 <board_name+0x220>
 ba8:	f7cff0ef          	jal	ra,324 <printf>
 bac:	00812783          	lw	a5,8(sp)
 bb0:	0007c703          	lbu	a4,0(a5)
 bb4:	07700793          	li	a5,119
 bb8:	02f71063          	bne	a4,a5,bd8 <main+0x3fc>
 bbc:	00412703          	lw	a4,4(sp)
 bc0:	00149793          	slli	a5,s1,0x1
 bc4:	00e787b3          	add	a5,a5,a4
 bc8:	00079583          	lh	a1,0(a5)
 bcc:	000017b7          	lui	a5,0x1
 bd0:	22078513          	addi	a0,a5,544 # 1220 <board_name+0x220>
 bd4:	f50ff0ef          	jal	ra,324 <printf>
 bd8:	00812783          	lw	a5,8(sp)
 bdc:	0007c703          	lbu	a4,0(a5)
 be0:	06c00793          	li	a5,108
 be4:	02f71063          	bne	a4,a5,c04 <main+0x428>
 be8:	00412703          	lw	a4,4(sp)
 bec:	00249793          	slli	a5,s1,0x2
 bf0:	00e787b3          	add	a5,a5,a4
 bf4:	0007a583          	lw	a1,0(a5)
 bf8:	000017b7          	lui	a5,0x1
 bfc:	22078513          	addi	a0,a5,544 # 1220 <board_name+0x220>
 c00:	f24ff0ef          	jal	ra,324 <printf>
 c04:	00148493          	addi	s1,s1,1
 c08:	f3dff06f          	j	b44 <main+0x368>
 c0c:	00c12783          	lw	a5,12(sp)
 c10:	07c10713          	addi	a4,sp,124
 c14:	00178793          	addi	a5,a5,1
 c18:	00f12c23          	sw	a5,24(sp)
 c1c:	00c12783          	lw	a5,12(sp)
 c20:	00279793          	slli	a5,a5,0x2
 c24:	00f707b3          	add	a5,a4,a5
 c28:	fa07a503          	lw	a0,-96(a5)
 c2c:	961ff0ef          	jal	ra,58c <xtoi>
 c30:	00812703          	lw	a4,8(sp)
 c34:	00050793          	mv	a5,a0
 c38:	00074683          	lbu	a3,0(a4)
 c3c:	06200713          	li	a4,98
 c40:	02e69463          	bne	a3,a4,c68 <main+0x48c>
 c44:	00412703          	lw	a4,4(sp)
 c48:	000017b7          	lui	a5,0x1
 c4c:	0ff57593          	andi	a1,a0,255
 c50:	00970733          	add	a4,a4,s1
 c54:	00a70023          	sb	a0,0(a4)
 c58:	00a12623          	sw	a0,12(sp)
 c5c:	22078513          	addi	a0,a5,544 # 1220 <board_name+0x220>
 c60:	ec4ff0ef          	jal	ra,324 <printf>
 c64:	00c12783          	lw	a5,12(sp)
 c68:	00812703          	lw	a4,8(sp)
 c6c:	00074683          	lbu	a3,0(a4)
 c70:	07700713          	li	a4,119
 c74:	02e69863          	bne	a3,a4,ca4 <main+0x4c8>
 c78:	01079593          	slli	a1,a5,0x10
 c7c:	00f12623          	sw	a5,12(sp)
 c80:	00412783          	lw	a5,4(sp)
 c84:	00149713          	slli	a4,s1,0x1
 c88:	4105d593          	srai	a1,a1,0x10
 c8c:	00f70733          	add	a4,a4,a5
 c90:	000017b7          	lui	a5,0x1
 c94:	22078513          	addi	a0,a5,544 # 1220 <board_name+0x220>
 c98:	00b71023          	sh	a1,0(a4)
 c9c:	e88ff0ef          	jal	ra,324 <printf>
 ca0:	00c12783          	lw	a5,12(sp)
 ca4:	00812703          	lw	a4,8(sp)
 ca8:	01812603          	lw	a2,24(sp)
 cac:	00074683          	lbu	a3,0(a4)
 cb0:	00c12623          	sw	a2,12(sp)
 cb4:	06c00713          	li	a4,108
 cb8:	f4e696e3          	bne	a3,a4,c04 <main+0x428>
 cbc:	00412683          	lw	a3,4(sp)
 cc0:	00249713          	slli	a4,s1,0x2
 cc4:	00078593          	mv	a1,a5
 cc8:	00d70733          	add	a4,a4,a3
 ccc:	00f72023          	sw	a5,0(a4)
 cd0:	f29ff06f          	j	bf8 <main+0x41c>
 cd4:	000015b7          	lui	a1,0x1
 cd8:	22c58593          	addi	a1,a1,556 # 122c <board_name+0x22c>
 cdc:	00040513          	mv	a0,s0
 ce0:	f4cff0ef          	jal	ra,42c <strcmp>
 ce4:	02051c63          	bnez	a0,d1c <main+0x540>
 ce8:	02012503          	lw	a0,32(sp)
 cec:	00050c63          	beqz	a0,d04 <main+0x528>
 cf0:	89dff0ef          	jal	ra,58c <xtoi>
 cf4:	00012783          	lw	a5,0(sp)
 cf8:	01051513          	slli	a0,a0,0x10
 cfc:	01055513          	srli	a0,a0,0x10
 d00:	00a79423          	sh	a0,8(a5)
 d04:	00012783          	lw	a5,0(sp)
 d08:	00001537          	lui	a0,0x1
 d0c:	23050513          	addi	a0,a0,560 # 1230 <board_name+0x230>
 d10:	0087d583          	lhu	a1,8(a5)
 d14:	e10ff0ef          	jal	ra,324 <printf>
 d18:	c1dff06f          	j	934 <main+0x158>
 d1c:	000015b7          	lui	a1,0x1
 d20:	23c58593          	addi	a1,a1,572 # 123c <board_name+0x23c>
 d24:	00040513          	mv	a0,s0
 d28:	f04ff0ef          	jal	ra,42c <strcmp>
 d2c:	02051663          	bnez	a0,d58 <main+0x57c>
 d30:	02012503          	lw	a0,32(sp)
 d34:	00050863          	beqz	a0,d44 <main+0x568>
 d38:	801ff0ef          	jal	ra,538 <atoi>
 d3c:	00012783          	lw	a5,0(sp)
 d40:	00a7a623          	sw	a0,12(a5)
 d44:	00012783          	lw	a5,0(sp)
 d48:	00001537          	lui	a0,0x1
 d4c:	24450513          	addi	a0,a0,580 # 1244 <board_name+0x244>
 d50:	00c7a583          	lw	a1,12(a5)
 d54:	fc1ff06f          	j	d14 <main+0x538>
 d58:	000015b7          	lui	a1,0x1
 d5c:	25058593          	addi	a1,a1,592 # 1250 <board_name+0x250>
 d60:	00040513          	mv	a0,s0
 d64:	ec8ff0ef          	jal	ra,42c <strcmp>
 d68:	02051a63          	bnez	a0,d9c <main+0x5c0>
 d6c:	02012503          	lw	a0,32(sp)
 d70:	00050c63          	beqz	a0,d88 <main+0x5ac>
 d74:	819ff0ef          	jal	ra,58c <xtoi>
 d78:	00012783          	lw	a5,0(sp)
 d7c:	01051513          	slli	a0,a0,0x10
 d80:	01055513          	srli	a0,a0,0x10
 d84:	00a79523          	sh	a0,10(a5)
 d88:	00012783          	lw	a5,0(sp)
 d8c:	00001537          	lui	a0,0x1
 d90:	25850513          	addi	a0,a0,600 # 1258 <board_name+0x258>
 d94:	00a7d583          	lhu	a1,10(a5)
 d98:	f7dff06f          	j	d14 <main+0x538>
 d9c:	000015b7          	lui	a1,0x1
 da0:	26458593          	addi	a1,a1,612 # 1264 <board_name+0x264>
 da4:	00040513          	mv	a0,s0
 da8:	e84ff0ef          	jal	ra,42c <strcmp>
 dac:	02051a63          	bnez	a0,de0 <main+0x604>
 db0:	02012503          	lw	a0,32(sp)
 db4:	f84ff0ef          	jal	ra,538 <atoi>
 db8:	00050413          	mv	s0,a0
 dbc:	02412503          	lw	a0,36(sp)
 dc0:	f78ff0ef          	jal	ra,538 <atoi>
 dc4:	00050593          	mv	a1,a0
 dc8:	00040513          	mv	a0,s0
 dcc:	851ff0ef          	jal	ra,61c <__mulsi3>
 dd0:	00050593          	mv	a1,a0
 dd4:	00001537          	lui	a0,0x1
 dd8:	26850513          	addi	a0,a0,616 # 1268 <board_name+0x268>
 ddc:	f39ff06f          	j	d14 <main+0x538>
 de0:	000015b7          	lui	a1,0x1
 de4:	27458593          	addi	a1,a1,628 # 1274 <board_name+0x274>
 de8:	00040513          	mv	a0,s0
 dec:	e40ff0ef          	jal	ra,42c <strcmp>
 df0:	04051863          	bnez	a0,e40 <main+0x664>
 df4:	02012503          	lw	a0,32(sp)
 df8:	f40ff0ef          	jal	ra,538 <atoi>
 dfc:	00050413          	mv	s0,a0
 e00:	02412503          	lw	a0,36(sp)
 e04:	f34ff0ef          	jal	ra,538 <atoi>
 e08:	00050493          	mv	s1,a0
 e0c:	00050593          	mv	a1,a0
 e10:	00040513          	mv	a0,s0
 e14:	94dff0ef          	jal	ra,760 <__modsi3>
 e18:	00a12223          	sw	a0,4(sp)
 e1c:	00048593          	mv	a1,s1
 e20:	00040513          	mv	a0,s0
 e24:	935ff0ef          	jal	ra,758 <__divsi3>
 e28:	00412603          	lw	a2,4(sp)
 e2c:	00050593          	mv	a1,a0
 e30:	00001537          	lui	a0,0x1
 e34:	27850513          	addi	a0,a0,632 # 1278 <board_name+0x278>
 e38:	cecff0ef          	jal	ra,324 <printf>
 e3c:	af9ff06f          	j	934 <main+0x158>
 e40:	000015b7          	lui	a1,0x1
 e44:	28c58593          	addi	a1,a1,652 # 128c <board_name+0x28c>
 e48:	00040513          	mv	a0,s0
 e4c:	de0ff0ef          	jal	ra,42c <strcmp>
 e50:	04051663          	bnez	a0,e9c <main+0x6c0>
 e54:	02012503          	lw	a0,32(sp)
 e58:	ee0ff0ef          	jal	ra,538 <atoi>
 e5c:	00050413          	mv	s0,a0
 e60:	02412503          	lw	a0,36(sp)
 e64:	ed4ff0ef          	jal	ra,538 <atoi>
 e68:	00050493          	mv	s1,a0
 e6c:	02812503          	lw	a0,40(sp)
 e70:	ec8ff0ef          	jal	ra,538 <atoi>
 e74:	01051613          	slli	a2,a0,0x10
 e78:	01049593          	slli	a1,s1,0x10
 e7c:	4105d593          	srai	a1,a1,0x10
 e80:	41065613          	srai	a2,a2,0x10
 e84:	00040513          	mv	a0,s0
 e88:	f44ff0ef          	jal	ra,5cc <mac>
 e8c:	00050593          	mv	a1,a0
 e90:	00001537          	lui	a0,0x1
 e94:	29050513          	addi	a0,a0,656 # 1290 <board_name+0x290>
 e98:	e7dff06f          	j	d14 <main+0x538>
 e9c:	00044783          	lbu	a5,0(s0)
 ea0:	a8078ae3          	beqz	a5,934 <main+0x158>
 ea4:	00001537          	lui	a0,0x1
 ea8:	00040593          	mv	a1,s0
 eac:	29c50513          	addi	a0,a0,668 # 129c <board_name+0x29c>
 eb0:	e65ff06f          	j	d14 <main+0x538>
