
darksocv.o:     file format elf32-littleriscv


Disassembly of section .text:

00000000 <boot>:
   0:	000017b7          	lui	a5,0x1
   4:	ff010113          	addi	sp,sp,-16
   8:	00812423          	sw	s0,8(sp)
   c:	4b47a403          	lw	s0,1204(a5) # 14b4 <threads>
  10:	00112623          	sw	ra,12(sp)
  14:	00140713          	addi	a4,s0,1
  18:	00147413          	andi	s0,s0,1
  1c:	03040513          	addi	a0,s0,48
  20:	4ae7aa23          	sw	a4,1204(a5)
  24:	06c000ef          	jal	ra,90 <putchar>
  28:	800007b7          	lui	a5,0x80000
  2c:	00078793          	mv	a5,a5
  30:	00041e63          	bnez	s0,4c <boot+0x4c>
  34:	03100713          	li	a4,49
  38:	00e12023          	sw	a4,0(sp)
  3c:	00100713          	li	a4,1
  40:	00e7a623          	sw	a4,12(a5) # 8000000c <io+0xc>
  44:	764000ef          	jal	ra,7a8 <main>
  48:	ffdff06f          	j	44 <boot+0x44>
  4c:	00012703          	lw	a4,0(sp)
  50:	00e7a623          	sw	a4,12(a5)
  54:	0087d703          	lhu	a4,8(a5)
  58:	00174713          	xori	a4,a4,1
  5c:	00e79423          	sh	a4,8(a5)
  60:	00a7d703          	lhu	a4,10(a5)
  64:	00174713          	xori	a4,a4,1
  68:	00e79523          	sh	a4,10(a5)
  6c:	000781a3          	sb	zero,3(a5)
  70:	fe5ff06f          	j	54 <boot+0x54>

00000074 <getchar>:
  74:	800007b7          	lui	a5,0x80000
  78:	00078793          	mv	a5,a5
  7c:	0047c703          	lbu	a4,4(a5) # 80000004 <io+0x4>
  80:	00277713          	andi	a4,a4,2
  84:	fe070ce3          	beqz	a4,7c <getchar+0x8>
  88:	0057c503          	lbu	a0,5(a5)
  8c:	00008067          	ret

00000090 <putchar>:
  90:	800007b7          	lui	a5,0x80000
  94:	00a00713          	li	a4,10
  98:	00078793          	mv	a5,a5
  9c:	00e51c63          	bne	a0,a4,b4 <putchar+0x24>
  a0:	0047c703          	lbu	a4,4(a5) # 80000004 <io+0x4>
  a4:	00177713          	andi	a4,a4,1
  a8:	fe071ce3          	bnez	a4,a0 <putchar+0x10>
  ac:	00d00713          	li	a4,13
  b0:	00e782a3          	sb	a4,5(a5)
  b4:	0047c703          	lbu	a4,4(a5)
  b8:	00177713          	andi	a4,a4,1
  bc:	fe071ce3          	bnez	a4,b4 <putchar+0x24>
  c0:	0ff57713          	andi	a4,a0,255
  c4:	00e782a3          	sb	a4,5(a5)
  c8:	00070513          	mv	a0,a4
  cc:	00008067          	ret

000000d0 <gets>:
  d0:	fff58593          	addi	a1,a1,-1
  d4:	fec10113          	addi	sp,sp,-20
  d8:	00b507b3          	add	a5,a0,a1
  dc:	00812623          	sw	s0,12(sp)
  e0:	00912423          	sw	s1,8(sp)
  e4:	00112823          	sw	ra,16(sp)
  e8:	00050493          	mv	s1,a0
  ec:	00f12023          	sw	a5,0(sp)
  f0:	00050413          	mv	s0,a0
  f4:	00012783          	lw	a5,0(sp)
  f8:	00f40863          	beq	s0,a5,108 <gets+0x38>
  fc:	f79ff0ef          	jal	ra,74 <getchar>
 100:	00a00693          	li	a3,10
 104:	02d51863          	bne	a0,a3,134 <gets+0x64>
 108:	00a00513          	li	a0,10
 10c:	f85ff0ef          	jal	ra,90 <putchar>
 110:	00040023          	sb	zero,0(s0)
 114:	00941463          	bne	s0,s1,11c <gets+0x4c>
 118:	00000493          	li	s1,0
 11c:	01012083          	lw	ra,16(sp)
 120:	00c12403          	lw	s0,12(sp)
 124:	00048513          	mv	a0,s1
 128:	00812483          	lw	s1,8(sp)
 12c:	01410113          	addi	sp,sp,20
 130:	00008067          	ret
 134:	00d00693          	li	a3,13
 138:	00a12223          	sw	a0,4(sp)
 13c:	fcd506e3          	beq	a0,a3,108 <gets+0x38>
 140:	f51ff0ef          	jal	ra,90 <putchar>
 144:	00412703          	lw	a4,4(sp)
 148:	00140413          	addi	s0,s0,1
 14c:	fee40fa3          	sb	a4,-1(s0)
 150:	fa5ff06f          	j	f4 <gets+0x24>

00000154 <putstr>:
 154:	ff410113          	addi	sp,sp,-12
 158:	00812223          	sw	s0,4(sp)
 15c:	00112423          	sw	ra,8(sp)
 160:	00050413          	mv	s0,a0
 164:	00051663          	bnez	a0,170 <putstr+0x1c>
 168:	00001437          	lui	s0,0x1
 16c:	0cc40413          	addi	s0,s0,204 # 10cc <board_name+0xcc>
 170:	00044503          	lbu	a0,0(s0)
 174:	00051a63          	bnez	a0,188 <putstr+0x34>
 178:	00812083          	lw	ra,8(sp)
 17c:	00412403          	lw	s0,4(sp)
 180:	00c10113          	addi	sp,sp,12
 184:	00008067          	ret
 188:	00140413          	addi	s0,s0,1
 18c:	f05ff0ef          	jal	ra,90 <putchar>
 190:	fe1ff06f          	j	170 <putstr+0x1c>

00000194 <puts>:
 194:	ff410113          	addi	sp,sp,-12
 198:	00112423          	sw	ra,8(sp)
 19c:	fb9ff0ef          	jal	ra,154 <putstr>
 1a0:	00812083          	lw	ra,8(sp)
 1a4:	00a00513          	li	a0,10
 1a8:	00c10113          	addi	sp,sp,12
 1ac:	ee5ff06f          	j	90 <putchar>

000001b0 <putx>:
 1b0:	fdc10113          	addi	sp,sp,-36
 1b4:	000015b7          	lui	a1,0x1
 1b8:	00812e23          	sw	s0,28(sp)
 1bc:	01400613          	li	a2,20
 1c0:	00050413          	mv	s0,a0
 1c4:	08c58593          	addi	a1,a1,140 # 108c <board_name+0x8c>
 1c8:	00410513          	addi	a0,sp,4
 1cc:	00912c23          	sw	s1,24(sp)
 1d0:	02112023          	sw	ra,32(sp)
 1d4:	250000ef          	jal	ra,424 <memcpy>
 1d8:	00410493          	addi	s1,sp,4
 1dc:	01800713          	li	a4,24
 1e0:	000016b7          	lui	a3,0x1
 1e4:	0004a783          	lw	a5,0(s1)
 1e8:	00079c63          	bnez	a5,200 <putx+0x50>
 1ec:	02012083          	lw	ra,32(sp)
 1f0:	01c12403          	lw	s0,28(sp)
 1f4:	01812483          	lw	s1,24(sp)
 1f8:	02410113          	addi	sp,sp,36
 1fc:	00008067          	ret
 200:	00100613          	li	a2,1
 204:	00c78463          	beq	a5,a2,20c <putx+0x5c>
 208:	04f46663          	bltu	s0,a5,254 <putx+0xa4>
 20c:	00470793          	addi	a5,a4,4
 210:	00f457b3          	srl	a5,s0,a5
 214:	0d468613          	addi	a2,a3,212 # 10d4 <board_name+0xd4>
 218:	00f7f793          	andi	a5,a5,15
 21c:	00c787b3          	add	a5,a5,a2
 220:	0007c503          	lbu	a0,0(a5)
 224:	00e12023          	sw	a4,0(sp)
 228:	e69ff0ef          	jal	ra,90 <putchar>
 22c:	00012703          	lw	a4,0(sp)
 230:	00e457b3          	srl	a5,s0,a4
 234:	00001737          	lui	a4,0x1
 238:	0d470613          	addi	a2,a4,212 # 10d4 <board_name+0xd4>
 23c:	00f7f793          	andi	a5,a5,15
 240:	00c787b3          	add	a5,a5,a2
 244:	0007c503          	lbu	a0,0(a5)
 248:	e49ff0ef          	jal	ra,90 <putchar>
 24c:	00012703          	lw	a4,0(sp)
 250:	000016b7          	lui	a3,0x1
 254:	ff870713          	addi	a4,a4,-8
 258:	00448493          	addi	s1,s1,4
 25c:	f89ff06f          	j	1e4 <putx+0x34>

00000260 <putd>:
 260:	fc810113          	addi	sp,sp,-56
 264:	000015b7          	lui	a1,0x1
 268:	02912623          	sw	s1,44(sp)
 26c:	02c00613          	li	a2,44
 270:	00050493          	mv	s1,a0
 274:	0a058593          	addi	a1,a1,160 # 10a0 <board_name+0xa0>
 278:	00010513          	mv	a0,sp
 27c:	02112a23          	sw	ra,52(sp)
 280:	02812823          	sw	s0,48(sp)
 284:	1a0000ef          	jal	ra,424 <memcpy>
 288:	0004d863          	bgez	s1,298 <putd+0x38>
 28c:	02d00513          	li	a0,45
 290:	e01ff0ef          	jal	ra,90 <putchar>
 294:	fff00493          	li	s1,-1
 298:	00010413          	mv	s0,sp
 29c:	00042583          	lw	a1,0(s0)
 2a0:	00059c63          	bnez	a1,2b8 <putd+0x58>
 2a4:	03412083          	lw	ra,52(sp)
 2a8:	03012403          	lw	s0,48(sp)
 2ac:	02c12483          	lw	s1,44(sp)
 2b0:	03810113          	addi	sp,sp,56
 2b4:	00008067          	ret
 2b8:	00100713          	li	a4,1
 2bc:	00e58463          	beq	a1,a4,2c4 <putd+0x64>
 2c0:	02b4c463          	blt	s1,a1,2e8 <putd+0x88>
 2c4:	00048513          	mv	a0,s1
 2c8:	45c000ef          	jal	ra,724 <__divsi3>
 2cc:	00a00593          	li	a1,10
 2d0:	45c000ef          	jal	ra,72c <__modsi3>
 2d4:	000017b7          	lui	a5,0x1
 2d8:	0e878713          	addi	a4,a5,232 # 10e8 <board_name+0xe8>
 2dc:	00a70533          	add	a0,a4,a0
 2e0:	00054503          	lbu	a0,0(a0)
 2e4:	dadff0ef          	jal	ra,90 <putchar>
 2e8:	00440413          	addi	s0,s0,4
 2ec:	fb1ff06f          	j	29c <putd+0x3c>

000002f0 <printf>:
 2f0:	fdc10113          	addi	sp,sp,-36
 2f4:	02f12023          	sw	a5,32(sp)
 2f8:	01010793          	addi	a5,sp,16
 2fc:	00812423          	sw	s0,8(sp)
 300:	00112623          	sw	ra,12(sp)
 304:	00912223          	sw	s1,4(sp)
 308:	00050413          	mv	s0,a0
 30c:	00b12823          	sw	a1,16(sp)
 310:	00c12a23          	sw	a2,20(sp)
 314:	00d12c23          	sw	a3,24(sp)
 318:	00e12e23          	sw	a4,28(sp)
 31c:	00f12023          	sw	a5,0(sp)
 320:	00044503          	lbu	a0,0(s0)
 324:	00051c63          	bnez	a0,33c <printf+0x4c>
 328:	00c12083          	lw	ra,12(sp)
 32c:	00812403          	lw	s0,8(sp)
 330:	00412483          	lw	s1,4(sp)
 334:	02410113          	addi	sp,sp,36
 338:	00008067          	ret
 33c:	02500793          	li	a5,37
 340:	00140493          	addi	s1,s0,1
 344:	06f51a63          	bne	a0,a5,3b8 <printf+0xc8>
 348:	00144503          	lbu	a0,1(s0)
 34c:	07300793          	li	a5,115
 350:	02f51063          	bne	a0,a5,370 <printf+0x80>
 354:	00012783          	lw	a5,0(sp)
 358:	0007a503          	lw	a0,0(a5)
 35c:	00478713          	addi	a4,a5,4
 360:	00e12023          	sw	a4,0(sp)
 364:	df1ff0ef          	jal	ra,154 <putstr>
 368:	00148413          	addi	s0,s1,1
 36c:	fb5ff06f          	j	320 <printf+0x30>
 370:	07800793          	li	a5,120
 374:	00f51e63          	bne	a0,a5,390 <printf+0xa0>
 378:	00012783          	lw	a5,0(sp)
 37c:	0007a503          	lw	a0,0(a5)
 380:	00478713          	addi	a4,a5,4
 384:	00e12023          	sw	a4,0(sp)
 388:	e29ff0ef          	jal	ra,1b0 <putx>
 38c:	fddff06f          	j	368 <printf+0x78>
 390:	06400793          	li	a5,100
 394:	00f51e63          	bne	a0,a5,3b0 <printf+0xc0>
 398:	00012783          	lw	a5,0(sp)
 39c:	0007a503          	lw	a0,0(a5)
 3a0:	00478713          	addi	a4,a5,4
 3a4:	00e12023          	sw	a4,0(sp)
 3a8:	eb9ff0ef          	jal	ra,260 <putd>
 3ac:	fbdff06f          	j	368 <printf+0x78>
 3b0:	ce1ff0ef          	jal	ra,90 <putchar>
 3b4:	fb5ff06f          	j	368 <printf+0x78>
 3b8:	cd9ff0ef          	jal	ra,90 <putchar>
 3bc:	00040493          	mv	s1,s0
 3c0:	fa9ff06f          	j	368 <printf+0x78>

000003c4 <strncmp>:
 3c4:	fff60613          	addi	a2,a2,-1
 3c8:	00000793          	li	a5,0
 3cc:	00f50733          	add	a4,a0,a5
 3d0:	00074683          	lbu	a3,0(a4)
 3d4:	00f58733          	add	a4,a1,a5
 3d8:	00074703          	lbu	a4,0(a4)
 3dc:	00c78a63          	beq	a5,a2,3f0 <strncmp+0x2c>
 3e0:	00068863          	beqz	a3,3f0 <strncmp+0x2c>
 3e4:	00070663          	beqz	a4,3f0 <strncmp+0x2c>
 3e8:	00178793          	addi	a5,a5,1
 3ec:	fee680e3          	beq	a3,a4,3cc <strncmp+0x8>
 3f0:	40e68533          	sub	a0,a3,a4
 3f4:	00008067          	ret

000003f8 <strcmp>:
 3f8:	fff00613          	li	a2,-1
 3fc:	fc9ff06f          	j	3c4 <strncmp>

00000400 <strlen>:
 400:	00000793          	li	a5,0
 404:	00f50733          	add	a4,a0,a5
 408:	00074703          	lbu	a4,0(a4)
 40c:	00070863          	beqz	a4,41c <strlen+0x1c>
 410:	00178793          	addi	a5,a5,1
 414:	00f50733          	add	a4,a0,a5
 418:	fe0716e3          	bnez	a4,404 <strlen+0x4>
 41c:	00078513          	mv	a0,a5
 420:	00008067          	ret

00000424 <memcpy>:
 424:	00000793          	li	a5,0
 428:	00c79463          	bne	a5,a2,430 <memcpy+0xc>
 42c:	00008067          	ret
 430:	00f58733          	add	a4,a1,a5
 434:	00074683          	lbu	a3,0(a4)
 438:	00f50733          	add	a4,a0,a5
 43c:	00178793          	addi	a5,a5,1
 440:	00d70023          	sb	a3,0(a4)
 444:	fe5ff06f          	j	428 <memcpy+0x4>

00000448 <memset>:
 448:	00c50633          	add	a2,a0,a2
 44c:	00050793          	mv	a5,a0
 450:	00c79463          	bne	a5,a2,458 <memset+0x10>
 454:	00008067          	ret
 458:	00178793          	addi	a5,a5,1
 45c:	feb78fa3          	sb	a1,-1(a5)
 460:	ff1ff06f          	j	450 <memset+0x8>

00000464 <strtok>:
 464:	fec10113          	addi	sp,sp,-20
 468:	00812623          	sw	s0,12(sp)
 46c:	00050413          	mv	s0,a0
 470:	00058513          	mv	a0,a1
 474:	00912423          	sw	s1,8(sp)
 478:	00112823          	sw	ra,16(sp)
 47c:	00058493          	mv	s1,a1
 480:	f81ff0ef          	jal	ra,400 <strlen>
 484:	00050693          	mv	a3,a0
 488:	00041863          	bnez	s0,498 <strtok+0x34>
 48c:	000017b7          	lui	a5,0x1
 490:	4b87a403          	lw	s0,1208(a5) # 14b8 <nxt.1626>
 494:	04040863          	beqz	s0,4e4 <strtok+0x80>
 498:	00040793          	mv	a5,s0
 49c:	0007c703          	lbu	a4,0(a5)
 4a0:	00071863          	bnez	a4,4b0 <strtok+0x4c>
 4a4:	000017b7          	lui	a5,0x1
 4a8:	4a07ac23          	sw	zero,1208(a5) # 14b8 <nxt.1626>
 4ac:	0380006f          	j	4e4 <strtok+0x80>
 4b0:	00068613          	mv	a2,a3
 4b4:	00078513          	mv	a0,a5
 4b8:	00048593          	mv	a1,s1
 4bc:	00d12223          	sw	a3,4(sp)
 4c0:	00f12023          	sw	a5,0(sp)
 4c4:	f01ff0ef          	jal	ra,3c4 <strncmp>
 4c8:	00012783          	lw	a5,0(sp)
 4cc:	00412683          	lw	a3,4(sp)
 4d0:	00178713          	addi	a4,a5,1
 4d4:	02051463          	bnez	a0,4fc <strtok+0x98>
 4d8:	00078023          	sb	zero,0(a5)
 4dc:	000017b7          	lui	a5,0x1
 4e0:	4ae7ac23          	sw	a4,1208(a5) # 14b8 <nxt.1626>
 4e4:	00040513          	mv	a0,s0
 4e8:	01012083          	lw	ra,16(sp)
 4ec:	00c12403          	lw	s0,12(sp)
 4f0:	00812483          	lw	s1,8(sp)
 4f4:	01410113          	addi	sp,sp,20
 4f8:	00008067          	ret
 4fc:	00070793          	mv	a5,a4
 500:	f9dff06f          	j	49c <strtok+0x38>

00000504 <atoi>:
 504:	00000693          	li	a3,0
 508:	00000793          	li	a5,0
 50c:	02d00613          	li	a2,45
 510:	00051c63          	bnez	a0,528 <atoi+0x24>
 514:	02069e63          	bnez	a3,550 <atoi+0x4c>
 518:	00078513          	mv	a0,a5
 51c:	00008067          	ret
 520:	00100693          	li	a3,1
 524:	0240006f          	j	548 <atoi+0x44>
 528:	00054703          	lbu	a4,0(a0)
 52c:	fe0704e3          	beqz	a4,514 <atoi+0x10>
 530:	fec708e3          	beq	a4,a2,520 <atoi+0x1c>
 534:	00379593          	slli	a1,a5,0x3
 538:	fd070713          	addi	a4,a4,-48
 53c:	00b70733          	add	a4,a4,a1
 540:	00179793          	slli	a5,a5,0x1
 544:	00f707b3          	add	a5,a4,a5
 548:	00150513          	addi	a0,a0,1
 54c:	fc5ff06f          	j	510 <atoi+0xc>
 550:	40f007b3          	neg	a5,a5
 554:	fc5ff06f          	j	518 <atoi+0x14>

00000558 <xtoi>:
 558:	00050693          	mv	a3,a0
 55c:	03900613          	li	a2,57
 560:	00000513          	li	a0,0
 564:	00068663          	beqz	a3,570 <xtoi+0x18>
 568:	0006c783          	lbu	a5,0(a3) # 1000 <board_name>
 56c:	00079463          	bnez	a5,574 <xtoi+0x1c>
 570:	00008067          	ret
 574:	00451713          	slli	a4,a0,0x4
 578:	00f66a63          	bltu	a2,a5,58c <xtoi+0x34>
 57c:	fd078793          	addi	a5,a5,-48
 580:	00e78533          	add	a0,a5,a4
 584:	00168693          	addi	a3,a3,1
 588:	fddff06f          	j	564 <xtoi+0xc>
 58c:	05f7f793          	andi	a5,a5,95
 590:	fc978793          	addi	a5,a5,-55
 594:	fedff06f          	j	580 <xtoi+0x28>

00000598 <mac>:
 598:	857f                	0x857f
 59a:	00c5                	addi	ra,ra,17
 59c:	00008067          	ret

000005a0 <__umulsi3>:
 5a0:	00050793          	mv	a5,a0
 5a4:	00000513          	li	a0,0
 5a8:	02b7e063          	bltu	a5,a1,5c8 <__umulsi3+0x28>
 5ac:	02059263          	bnez	a1,5d0 <__umulsi3+0x30>
 5b0:	00008067          	ret
 5b4:	0017f713          	andi	a4,a5,1
 5b8:	00070463          	beqz	a4,5c0 <__umulsi3+0x20>
 5bc:	00b50533          	add	a0,a0,a1
 5c0:	0017d793          	srli	a5,a5,0x1
 5c4:	00159593          	slli	a1,a1,0x1
 5c8:	fe0796e3          	bnez	a5,5b4 <__umulsi3+0x14>
 5cc:	00008067          	ret
 5d0:	0015f713          	andi	a4,a1,1
 5d4:	00070463          	beqz	a4,5dc <__umulsi3+0x3c>
 5d8:	00f50533          	add	a0,a0,a5
 5dc:	00179793          	slli	a5,a5,0x1
 5e0:	0015d593          	srli	a1,a1,0x1
 5e4:	fc9ff06f          	j	5ac <__umulsi3+0xc>

000005e8 <__mulsi3>:
 5e8:	ff410113          	addi	sp,sp,-12
 5ec:	00912023          	sw	s1,0(sp)
 5f0:	00112423          	sw	ra,8(sp)
 5f4:	00812223          	sw	s0,4(sp)
 5f8:	00000493          	li	s1,0
 5fc:	00055663          	bgez	a0,608 <__mulsi3+0x20>
 600:	40a00533          	neg	a0,a0
 604:	00100493          	li	s1,1
 608:	00000413          	li	s0,0
 60c:	0005d663          	bgez	a1,618 <__mulsi3+0x30>
 610:	40b005b3          	neg	a1,a1
 614:	00100413          	li	s0,1
 618:	f89ff0ef          	jal	ra,5a0 <__umulsi3>
 61c:	00050793          	mv	a5,a0
 620:	00848463          	beq	s1,s0,628 <__mulsi3+0x40>
 624:	40a007b3          	neg	a5,a0
 628:	00812083          	lw	ra,8(sp)
 62c:	00412403          	lw	s0,4(sp)
 630:	00012483          	lw	s1,0(sp)
 634:	00078513          	mv	a0,a5
 638:	00c10113          	addi	sp,sp,12
 63c:	00008067          	ret

00000640 <__udiv_umod_si3>:
 640:	00100793          	li	a5,1
 644:	00059a63          	bnez	a1,658 <__udiv_umod_si3+0x18>
 648:	00058513          	mv	a0,a1
 64c:	00008067          	ret
 650:	00179793          	slli	a5,a5,0x1
 654:	00159593          	slli	a1,a1,0x1
 658:	fea5ece3          	bltu	a1,a0,650 <__udiv_umod_si3+0x10>
 65c:	00058713          	mv	a4,a1
 660:	00000593          	li	a1,0
 664:	00050463          	beqz	a0,66c <__udiv_umod_si3+0x2c>
 668:	00079863          	bnez	a5,678 <__udiv_umod_si3+0x38>
 66c:	fc061ee3          	bnez	a2,648 <__udiv_umod_si3+0x8>
 670:	00050593          	mv	a1,a0
 674:	fd5ff06f          	j	648 <__udiv_umod_si3+0x8>
 678:	00e56663          	bltu	a0,a4,684 <__udiv_umod_si3+0x44>
 67c:	40e50533          	sub	a0,a0,a4
 680:	00f585b3          	add	a1,a1,a5
 684:	0017d793          	srli	a5,a5,0x1
 688:	00175713          	srli	a4,a4,0x1
 68c:	fd9ff06f          	j	664 <__udiv_umod_si3+0x24>

00000690 <__udivsi3>:
 690:	00100613          	li	a2,1
 694:	fadff06f          	j	640 <__udiv_umod_si3>

00000698 <__umodsi3>:
 698:	00000613          	li	a2,0
 69c:	fa5ff06f          	j	640 <__udiv_umod_si3>

000006a0 <__div_mod_si3>:
 6a0:	06058e63          	beqz	a1,71c <__div_mod_si3+0x7c>
 6a4:	ff010113          	addi	sp,sp,-16
 6a8:	00812423          	sw	s0,8(sp)
 6ac:	00112623          	sw	ra,12(sp)
 6b0:	00912223          	sw	s1,4(sp)
 6b4:	00060793          	mv	a5,a2
 6b8:	00000413          	li	s0,0
 6bc:	00055663          	bgez	a0,6c8 <__div_mod_si3+0x28>
 6c0:	40a00533          	neg	a0,a0
 6c4:	00100413          	li	s0,1
 6c8:	00000493          	li	s1,0
 6cc:	0005d663          	bgez	a1,6d8 <__div_mod_si3+0x38>
 6d0:	40b005b3          	neg	a1,a1
 6d4:	00100493          	li	s1,1
 6d8:	00078613          	mv	a2,a5
 6dc:	00f12023          	sw	a5,0(sp)
 6e0:	f61ff0ef          	jal	ra,640 <__udiv_umod_si3>
 6e4:	00012783          	lw	a5,0(sp)
 6e8:	00050593          	mv	a1,a0
 6ec:	02078263          	beqz	a5,710 <__div_mod_si3+0x70>
 6f0:	00940463          	beq	s0,s1,6f8 <__div_mod_si3+0x58>
 6f4:	40a005b3          	neg	a1,a0
 6f8:	00c12083          	lw	ra,12(sp)
 6fc:	00812403          	lw	s0,8(sp)
 700:	00412483          	lw	s1,4(sp)
 704:	00058513          	mv	a0,a1
 708:	01010113          	addi	sp,sp,16
 70c:	00008067          	ret
 710:	fe0404e3          	beqz	s0,6f8 <__div_mod_si3+0x58>
 714:	40a005b3          	neg	a1,a0
 718:	fe1ff06f          	j	6f8 <__div_mod_si3+0x58>
 71c:	00058513          	mv	a0,a1
 720:	00008067          	ret

00000724 <__divsi3>:
 724:	00100613          	li	a2,1
 728:	f79ff06f          	j	6a0 <__div_mod_si3>

0000072c <__modsi3>:
 72c:	00000613          	li	a2,0
 730:	f71ff06f          	j	6a0 <__div_mod_si3>

00000734 <banner>:
 734:	ee010113          	addi	sp,sp,-288
 738:	000015b7          	lui	a1,0x1
 73c:	10d00613          	li	a2,269
 740:	3a458593          	addi	a1,a1,932 # 13a4 <board_name+0x3a4>
 744:	00410513          	addi	a0,sp,4
 748:	10112e23          	sw	ra,284(sp)
 74c:	10812c23          	sw	s0,280(sp)
 750:	10912a23          	sw	s1,276(sp)
 754:	cd1ff0ef          	jal	ra,424 <memcpy>
 758:	00a00513          	li	a0,10
 75c:	935ff0ef          	jal	ra,90 <putchar>
 760:	00410413          	addi	s0,sp,4
 764:	00044783          	lbu	a5,0(s0)
 768:	00079c63          	bnez	a5,780 <banner+0x4c>
 76c:	11c12083          	lw	ra,284(sp)
 770:	11812403          	lw	s0,280(sp)
 774:	11412483          	lw	s1,276(sp)
 778:	12010113          	addi	sp,sp,288
 77c:	00008067          	ret
 780:	00240413          	addi	s0,s0,2
 784:	fff44483          	lbu	s1,-1(s0)
 788:	fff48493          	addi	s1,s1,-1
 78c:	fff00713          	li	a4,-1
 790:	fce48ae3          	beq	s1,a4,764 <banner+0x30>
 794:	00078513          	mv	a0,a5
 798:	00f12023          	sw	a5,0(sp)
 79c:	8f5ff0ef          	jal	ra,90 <putchar>
 7a0:	00012783          	lw	a5,0(sp)
 7a4:	fe5ff06f          	j	788 <banner+0x54>

Disassembly of section .text.startup:

000007a8 <main>:
 7a8:	f8410113          	addi	sp,sp,-124
 7ac:	06112c23          	sw	ra,120(sp)
 7b0:	06812a23          	sw	s0,116(sp)
 7b4:	06912823          	sw	s1,112(sp)
 7b8:	80000437          	lui	s0,0x80000
 7bc:	f79ff0ef          	jal	ra,734 <banner>
 7c0:	00044783          	lbu	a5,0(s0) # 80000000 <io+0x0>
 7c4:	00001737          	lui	a4,0x1
 7c8:	00070713          	mv	a4,a4
 7cc:	00279793          	slli	a5,a5,0x2
 7d0:	00e787b3          	add	a5,a5,a4
 7d4:	00044603          	lbu	a2,0(s0)
 7d8:	0007a583          	lw	a1,0(a5)
 7dc:	00001537          	lui	a0,0x1
 7e0:	10450513          	addi	a0,a0,260 # 1104 <board_name+0x104>
 7e4:	b0dff0ef          	jal	ra,2f0 <printf>
 7e8:	000015b7          	lui	a1,0x1
 7ec:	00001537          	lui	a0,0x1
 7f0:	11858593          	addi	a1,a1,280 # 1118 <board_name+0x118>
 7f4:	13850513          	addi	a0,a0,312 # 1138 <board_name+0x138>
 7f8:	af9ff0ef          	jal	ra,2f0 <printf>
 7fc:	00040793          	mv	a5,s0
 800:	0017c483          	lbu	s1,1(a5)
 804:	0027c303          	lbu	t1,2(a5)
 808:	000017b7          	lui	a5,0x1
 80c:	4b47a683          	lw	a3,1204(a5) # 14b4 <threads>
 810:	00040613          	mv	a2,s0
 814:	00100713          	li	a4,1
 818:	00c12023          	sw	a2,0(sp)
 81c:	0ff4f493          	andi	s1,s1,255
 820:	0ff37313          	andi	t1,t1,255
 824:	00078413          	mv	s0,a5
 828:	16d74263          	blt	a4,a3,98c <main+0x1e4>
 82c:	00001737          	lui	a4,0x1
 830:	4b070713          	addi	a4,a4,1200 # 14b0 <board_name+0x4b0>
 834:	01000613          	li	a2,16
 838:	01000593          	li	a1,16
 83c:	3e800513          	li	a0,1000
 840:	00e12423          	sw	a4,8(sp)
 844:	00612223          	sw	t1,4(sp)
 848:	d51ff0ef          	jal	ra,598 <mac>
 84c:	4e800793          	li	a5,1256
 850:	00412303          	lw	t1,4(sp)
 854:	00812703          	lw	a4,8(sp)
 858:	14f50063          	beq	a0,a5,998 <main+0x1f0>
 85c:	000017b7          	lui	a5,0x1
 860:	4b078793          	addi	a5,a5,1200 # 14b0 <board_name+0x4b0>
 864:	000016b7          	lui	a3,0x1
 868:	00001537          	lui	a0,0x1
 86c:	15868693          	addi	a3,a3,344 # 1158 <board_name+0x158>
 870:	00030613          	mv	a2,t1
 874:	00048593          	mv	a1,s1
 878:	16050513          	addi	a0,a0,352 # 1160 <board_name+0x160>
 87c:	a75ff0ef          	jal	ra,2f0 <printf>
 880:	00012783          	lw	a5,0(sp)
 884:	00001537          	lui	a0,0x1
 888:	18850513          	addi	a0,a0,392 # 1188 <board_name+0x188>
 88c:	0067d583          	lhu	a1,6(a5)
 890:	4a042a23          	sw	zero,1204(s0)
 894:	a5dff0ef          	jal	ra,2f0 <printf>
 898:	00012783          	lw	a5,0(sp)
 89c:	000f45b7          	lui	a1,0xf4
 8a0:	24058593          	addi	a1,a1,576 # f4240 <nxt.1626+0xf2d88>
 8a4:	0017c503          	lbu	a0,1(a5)
 8a8:	0027c783          	lbu	a5,2(a5)
 8ac:	0ff7f413          	andi	s0,a5,255
 8b0:	00012783          	lw	a5,0(sp)
 8b4:	00c7a483          	lw	s1,12(a5)
 8b8:	d31ff0ef          	jal	ra,5e8 <__mulsi3>
 8bc:	00541793          	slli	a5,s0,0x5
 8c0:	408787b3          	sub	a5,a5,s0
 8c4:	00279793          	slli	a5,a5,0x2
 8c8:	008787b3          	add	a5,a5,s0
 8cc:	00379793          	slli	a5,a5,0x3
 8d0:	00f50533          	add	a0,a0,a5
 8d4:	00148593          	addi	a1,s1,1
 8d8:	db9ff0ef          	jal	ra,690 <__udivsi3>
 8dc:	00050593          	mv	a1,a0
 8e0:	00001537          	lui	a0,0x1
 8e4:	1a450513          	addi	a0,a0,420 # 11a4 <board_name+0x1a4>
 8e8:	a09ff0ef          	jal	ra,2f0 <printf>
 8ec:	00a00513          	li	a0,10
 8f0:	fa0ff0ef          	jal	ra,90 <putchar>
 8f4:	00001537          	lui	a0,0x1
 8f8:	1c050513          	addi	a0,a0,448 # 11c0 <board_name+0x1c0>
 8fc:	899ff0ef          	jal	ra,194 <puts>
 900:	000017b7          	lui	a5,0x1
 904:	1d878513          	addi	a0,a5,472 # 11d8 <board_name+0x1d8>
 908:	9e9ff0ef          	jal	ra,2f0 <printf>
 90c:	04000613          	li	a2,64
 910:	00000593          	li	a1,0
 914:	03010513          	addi	a0,sp,48
 918:	b31ff0ef          	jal	ra,448 <memset>
 91c:	04000593          	li	a1,64
 920:	03010513          	addi	a0,sp,48
 924:	facff0ef          	jal	ra,d0 <gets>
 928:	00000413          	li	s0,0
 92c:	03010513          	addi	a0,sp,48
 930:	000014b7          	lui	s1,0x1
 934:	1dc48593          	addi	a1,s1,476 # 11dc <board_name+0x1dc>
 938:	b2dff0ef          	jal	ra,464 <strtok>
 93c:	00241793          	slli	a5,s0,0x2
 940:	07010713          	addi	a4,sp,112
 944:	00f707b3          	add	a5,a4,a5
 948:	faa7a023          	sw	a0,-96(a5)
 94c:	00050a63          	beqz	a0,960 <main+0x1b8>
 950:	00140413          	addi	s0,s0,1
 954:	00800793          	li	a5,8
 958:	00000513          	li	a0,0
 95c:	fcf41ce3          	bne	s0,a5,934 <main+0x18c>
 960:	01012403          	lw	s0,16(sp)
 964:	f8040ee3          	beqz	s0,900 <main+0x158>
 968:	000015b7          	lui	a1,0x1
 96c:	1e058593          	addi	a1,a1,480 # 11e0 <board_name+0x1e0>
 970:	00040513          	mv	a0,s0
 974:	a85ff0ef          	jal	ra,3f8 <strcmp>
 978:	02051663          	bnez	a0,9a4 <main+0x1fc>
 97c:	00001537          	lui	a0,0x1
 980:	1e850513          	addi	a0,a0,488 # 11e8 <board_name+0x1e8>
 984:	96dff0ef          	jal	ra,2f0 <printf>
 988:	f79ff06f          	j	900 <main+0x158>
 98c:	00001737          	lui	a4,0x1
 990:	0f470713          	addi	a4,a4,244 # 10f4 <board_name+0xf4>
 994:	ea1ff06f          	j	834 <main+0x8c>
 998:	000017b7          	lui	a5,0x1
 99c:	0fc78793          	addi	a5,a5,252 # 10fc <board_name+0xfc>
 9a0:	ec5ff06f          	j	864 <main+0xbc>
 9a4:	000015b7          	lui	a1,0x1
 9a8:	1f058593          	addi	a1,a1,496 # 11f0 <board_name+0x1f0>
 9ac:	00040513          	mv	a0,s0
 9b0:	a49ff0ef          	jal	ra,3f8 <strcmp>
 9b4:	00051a63          	bnez	a0,9c8 <main+0x220>
 9b8:	d7dff0ef          	jal	ra,734 <banner>
 9bc:	00001537          	lui	a0,0x1
 9c0:	1f850513          	addi	a0,a0,504 # 11f8 <board_name+0x1f8>
 9c4:	f39ff06f          	j	8fc <main+0x154>
 9c8:	000015b7          	lui	a1,0x1
 9cc:	21058593          	addi	a1,a1,528 # 1210 <board_name+0x210>
 9d0:	00040513          	mv	a0,s0
 9d4:	a25ff0ef          	jal	ra,3f8 <strcmp>
 9d8:	0a051463          	bnez	a0,a80 <main+0x2d8>
 9dc:	01412403          	lw	s0,20(sp)
 9e0:	00040863          	beqz	s0,9f0 <main+0x248>
 9e4:	00040513          	mv	a0,s0
 9e8:	b71ff0ef          	jal	ra,558 <xtoi>
 9ec:	00050413          	mv	s0,a0
 9f0:	10040493          	addi	s1,s0,256
 9f4:	000017b7          	lui	a5,0x1
 9f8:	00040593          	mv	a1,s0
 9fc:	21878513          	addi	a0,a5,536 # 1218 <board_name+0x218>
 a00:	8f1ff0ef          	jal	ra,2f0 <printf>
 a04:	00000713          	li	a4,0
 a08:	00001637          	lui	a2,0x1
 a0c:	00e406b3          	add	a3,s0,a4
 a10:	0006c583          	lbu	a1,0(a3)
 a14:	22060513          	addi	a0,a2,544 # 1220 <board_name+0x220>
 a18:	00e12223          	sw	a4,4(sp)
 a1c:	8d5ff0ef          	jal	ra,2f0 <printf>
 a20:	00412703          	lw	a4,4(sp)
 a24:	01000693          	li	a3,16
 a28:	00001637          	lui	a2,0x1
 a2c:	00170713          	addi	a4,a4,1
 a30:	fcd71ee3          	bne	a4,a3,a0c <main+0x264>
 a34:	00000713          	li	a4,0
 a38:	00e406b3          	add	a3,s0,a4
 a3c:	0006c503          	lbu	a0,0(a3)
 a40:	05e00613          	li	a2,94
 a44:	fe050693          	addi	a3,a0,-32
 a48:	0ff6f693          	andi	a3,a3,255
 a4c:	00d67463          	bleu	a3,a2,a54 <main+0x2ac>
 a50:	02e00513          	li	a0,46
 a54:	00e12223          	sw	a4,4(sp)
 a58:	e38ff0ef          	jal	ra,90 <putchar>
 a5c:	00412703          	lw	a4,4(sp)
 a60:	01000693          	li	a3,16
 a64:	00170713          	addi	a4,a4,1
 a68:	fcd718e3          	bne	a4,a3,a38 <main+0x290>
 a6c:	00a00513          	li	a0,10
 a70:	01040413          	addi	s0,s0,16
 a74:	e1cff0ef          	jal	ra,90 <putchar>
 a78:	f6849ee3          	bne	s1,s0,9f4 <main+0x24c>
 a7c:	e85ff06f          	j	900 <main+0x158>
 a80:	000015b7          	lui	a1,0x1
 a84:	00200613          	li	a2,2
 a88:	22458593          	addi	a1,a1,548 # 1224 <board_name+0x224>
 a8c:	00040513          	mv	a0,s0
 a90:	935ff0ef          	jal	ra,3c4 <strncmp>
 a94:	00a12223          	sw	a0,4(sp)
 a98:	12051a63          	bnez	a0,bcc <main+0x424>
 a9c:	01412503          	lw	a0,20(sp)
 aa0:	ab9ff0ef          	jal	ra,558 <xtoi>
 aa4:	00244703          	lbu	a4,2(s0)
 aa8:	06200793          	li	a5,98
 aac:	00050493          	mv	s1,a0
 ab0:	00f71c63          	bne	a4,a5,ac8 <main+0x320>
 ab4:	00054603          	lbu	a2,0(a0)
 ab8:	00050593          	mv	a1,a0
 abc:	00001537          	lui	a0,0x1
 ac0:	22850513          	addi	a0,a0,552 # 1228 <board_name+0x228>
 ac4:	82dff0ef          	jal	ra,2f0 <printf>
 ac8:	00244703          	lbu	a4,2(s0)
 acc:	07700793          	li	a5,119
 ad0:	00f71c63          	bne	a4,a5,ae8 <main+0x340>
 ad4:	00049603          	lh	a2,0(s1)
 ad8:	00001537          	lui	a0,0x1
 adc:	00048593          	mv	a1,s1
 ae0:	22850513          	addi	a0,a0,552 # 1228 <board_name+0x228>
 ae4:	80dff0ef          	jal	ra,2f0 <printf>
 ae8:	00244703          	lbu	a4,2(s0)
 aec:	06c00793          	li	a5,108
 af0:	00f71c63          	bne	a4,a5,b08 <main+0x360>
 af4:	0004a603          	lw	a2,0(s1)
 af8:	00001537          	lui	a0,0x1
 afc:	00048593          	mv	a1,s1
 b00:	22850513          	addi	a0,a0,552 # 1228 <board_name+0x228>
 b04:	fecff0ef          	jal	ra,2f0 <printf>
 b08:	00244703          	lbu	a4,2(s0)
 b0c:	06d00793          	li	a5,109
 b10:	def718e3          	bne	a4,a5,900 <main+0x158>
 b14:	01812503          	lw	a0,24(sp)
 b18:	a41ff0ef          	jal	ra,558 <xtoi>
 b1c:	00a12423          	sw	a0,8(sp)
 b20:	00001537          	lui	a0,0x1
 b24:	00048593          	mv	a1,s1
 b28:	21850513          	addi	a0,a0,536 # 1218 <board_name+0x218>
 b2c:	fc4ff0ef          	jal	ra,2f0 <printf>
 b30:	00412783          	lw	a5,4(sp)
 b34:	00812703          	lw	a4,8(sp)
 b38:	00e79863          	bne	a5,a4,b48 <main+0x3a0>
 b3c:	00a00513          	li	a0,10
 b40:	d50ff0ef          	jal	ra,90 <putchar>
 b44:	dbdff06f          	j	900 <main+0x158>
 b48:	00344703          	lbu	a4,3(s0)
 b4c:	06200793          	li	a5,98
 b50:	00f71e63          	bne	a4,a5,b6c <main+0x3c4>
 b54:	00412783          	lw	a5,4(sp)
 b58:	00f487b3          	add	a5,s1,a5
 b5c:	0007c583          	lbu	a1,0(a5)
 b60:	000017b7          	lui	a5,0x1
 b64:	22078513          	addi	a0,a5,544 # 1220 <board_name+0x220>
 b68:	f88ff0ef          	jal	ra,2f0 <printf>
 b6c:	00344703          	lbu	a4,3(s0)
 b70:	07700793          	li	a5,119
 b74:	02f71063          	bne	a4,a5,b94 <main+0x3ec>
 b78:	00412783          	lw	a5,4(sp)
 b7c:	00179793          	slli	a5,a5,0x1
 b80:	009787b3          	add	a5,a5,s1
 b84:	00079583          	lh	a1,0(a5)
 b88:	000017b7          	lui	a5,0x1
 b8c:	22078513          	addi	a0,a5,544 # 1220 <board_name+0x220>
 b90:	f60ff0ef          	jal	ra,2f0 <printf>
 b94:	00344703          	lbu	a4,3(s0)
 b98:	06c00793          	li	a5,108
 b9c:	02f71063          	bne	a4,a5,bbc <main+0x414>
 ba0:	00412783          	lw	a5,4(sp)
 ba4:	00279793          	slli	a5,a5,0x2
 ba8:	009787b3          	add	a5,a5,s1
 bac:	0007a583          	lw	a1,0(a5)
 bb0:	000017b7          	lui	a5,0x1
 bb4:	22078513          	addi	a0,a5,544 # 1220 <board_name+0x220>
 bb8:	f38ff0ef          	jal	ra,2f0 <printf>
 bbc:	00412783          	lw	a5,4(sp)
 bc0:	00178793          	addi	a5,a5,1
 bc4:	00f12223          	sw	a5,4(sp)
 bc8:	f69ff06f          	j	b30 <main+0x388>
 bcc:	000015b7          	lui	a1,0x1
 bd0:	00200613          	li	a2,2
 bd4:	23058593          	addi	a1,a1,560 # 1230 <board_name+0x230>
 bd8:	00040513          	mv	a0,s0
 bdc:	fe8ff0ef          	jal	ra,3c4 <strncmp>
 be0:	00a12223          	sw	a0,4(sp)
 be4:	18051463          	bnez	a0,d6c <main+0x5c4>
 be8:	01412503          	lw	a0,20(sp)
 bec:	96dff0ef          	jal	ra,558 <xtoi>
 bf0:	00a12423          	sw	a0,8(sp)
 bf4:	01812503          	lw	a0,24(sp)
 bf8:	961ff0ef          	jal	ra,558 <xtoi>
 bfc:	00244683          	lbu	a3,2(s0)
 c00:	06200713          	li	a4,98
 c04:	00050493          	mv	s1,a0
 c08:	00812783          	lw	a5,8(sp)
 c0c:	02e69063          	bne	a3,a4,c2c <main+0x484>
 c10:	00a78023          	sb	a0,0(a5)
 c14:	0ff57613          	andi	a2,a0,255
 c18:	00001537          	lui	a0,0x1
 c1c:	00078593          	mv	a1,a5
 c20:	22850513          	addi	a0,a0,552 # 1228 <board_name+0x228>
 c24:	eccff0ef          	jal	ra,2f0 <printf>
 c28:	00812783          	lw	a5,8(sp)
 c2c:	00244683          	lbu	a3,2(s0)
 c30:	07700713          	li	a4,119
 c34:	02e69463          	bne	a3,a4,c5c <main+0x4b4>
 c38:	01049613          	slli	a2,s1,0x10
 c3c:	41065613          	srai	a2,a2,0x10
 c40:	00001537          	lui	a0,0x1
 c44:	00c79023          	sh	a2,0(a5)
 c48:	00078593          	mv	a1,a5
 c4c:	22850513          	addi	a0,a0,552 # 1228 <board_name+0x228>
 c50:	00f12423          	sw	a5,8(sp)
 c54:	e9cff0ef          	jal	ra,2f0 <printf>
 c58:	00812783          	lw	a5,8(sp)
 c5c:	00244683          	lbu	a3,2(s0)
 c60:	06c00713          	li	a4,108
 c64:	00e69e63          	bne	a3,a4,c80 <main+0x4d8>
 c68:	00001537          	lui	a0,0x1
 c6c:	0097a023          	sw	s1,0(a5)
 c70:	00048613          	mv	a2,s1
 c74:	00078593          	mv	a1,a5
 c78:	22850513          	addi	a0,a0,552 # 1228 <board_name+0x228>
 c7c:	e74ff0ef          	jal	ra,2f0 <printf>
 c80:	00244703          	lbu	a4,2(s0)
 c84:	06d00793          	li	a5,109
 c88:	c6f71ce3          	bne	a4,a5,900 <main+0x158>
 c8c:	00040513          	mv	a0,s0
 c90:	8c9ff0ef          	jal	ra,558 <xtoi>
 c94:	00a12423          	sw	a0,8(sp)
 c98:	00040513          	mv	a0,s0
 c9c:	8bdff0ef          	jal	ra,558 <xtoi>
 ca0:	00050593          	mv	a1,a0
 ca4:	00001537          	lui	a0,0x1
 ca8:	21850513          	addi	a0,a0,536 # 1218 <board_name+0x218>
 cac:	e44ff0ef          	jal	ra,2f0 <printf>
 cb0:	00412783          	lw	a5,4(sp)
 cb4:	00812703          	lw	a4,8(sp)
 cb8:	e8e782e3          	beq	a5,a4,b3c <main+0x394>
 cbc:	01c12503          	lw	a0,28(sp)
 cc0:	899ff0ef          	jal	ra,558 <xtoi>
 cc4:	00344683          	lbu	a3,3(s0)
 cc8:	06200713          	li	a4,98
 ccc:	00050793          	mv	a5,a0
 cd0:	02e69463          	bne	a3,a4,cf8 <main+0x550>
 cd4:	00412703          	lw	a4,4(sp)
 cd8:	000017b7          	lui	a5,0x1
 cdc:	0ff57593          	andi	a1,a0,255
 ce0:	00e48733          	add	a4,s1,a4
 ce4:	00a70023          	sb	a0,0(a4)
 ce8:	00a12623          	sw	a0,12(sp)
 cec:	22078513          	addi	a0,a5,544 # 1220 <board_name+0x220>
 cf0:	e00ff0ef          	jal	ra,2f0 <printf>
 cf4:	00c12783          	lw	a5,12(sp)
 cf8:	00344683          	lbu	a3,3(s0)
 cfc:	07700713          	li	a4,119
 d00:	02e69863          	bne	a3,a4,d30 <main+0x588>
 d04:	01079593          	slli	a1,a5,0x10
 d08:	00f12623          	sw	a5,12(sp)
 d0c:	00412783          	lw	a5,4(sp)
 d10:	4105d593          	srai	a1,a1,0x10
 d14:	00179713          	slli	a4,a5,0x1
 d18:	00970733          	add	a4,a4,s1
 d1c:	000017b7          	lui	a5,0x1
 d20:	22078513          	addi	a0,a5,544 # 1220 <board_name+0x220>
 d24:	00b71023          	sh	a1,0(a4)
 d28:	dc8ff0ef          	jal	ra,2f0 <printf>
 d2c:	00c12783          	lw	a5,12(sp)
 d30:	00344683          	lbu	a3,3(s0)
 d34:	06c00713          	li	a4,108
 d38:	02e69263          	bne	a3,a4,d5c <main+0x5b4>
 d3c:	00412703          	lw	a4,4(sp)
 d40:	00078593          	mv	a1,a5
 d44:	00271713          	slli	a4,a4,0x2
 d48:	00970733          	add	a4,a4,s1
 d4c:	00f72023          	sw	a5,0(a4)
 d50:	000017b7          	lui	a5,0x1
 d54:	22078513          	addi	a0,a5,544 # 1220 <board_name+0x220>
 d58:	d98ff0ef          	jal	ra,2f0 <printf>
 d5c:	00412783          	lw	a5,4(sp)
 d60:	00178793          	addi	a5,a5,1
 d64:	00f12223          	sw	a5,4(sp)
 d68:	f49ff06f          	j	cb0 <main+0x508>
 d6c:	000015b7          	lui	a1,0x1
 d70:	23458593          	addi	a1,a1,564 # 1234 <board_name+0x234>
 d74:	00040513          	mv	a0,s0
 d78:	e80ff0ef          	jal	ra,3f8 <strcmp>
 d7c:	02051c63          	bnez	a0,db4 <main+0x60c>
 d80:	01412503          	lw	a0,20(sp)
 d84:	00050c63          	beqz	a0,d9c <main+0x5f4>
 d88:	fd0ff0ef          	jal	ra,558 <xtoi>
 d8c:	00012783          	lw	a5,0(sp)
 d90:	01051513          	slli	a0,a0,0x10
 d94:	01055513          	srli	a0,a0,0x10
 d98:	00a79423          	sh	a0,8(a5)
 d9c:	00012783          	lw	a5,0(sp)
 da0:	00001537          	lui	a0,0x1
 da4:	23850513          	addi	a0,a0,568 # 1238 <board_name+0x238>
 da8:	0087d583          	lhu	a1,8(a5)
 dac:	d44ff0ef          	jal	ra,2f0 <printf>
 db0:	b51ff06f          	j	900 <main+0x158>
 db4:	000015b7          	lui	a1,0x1
 db8:	24458593          	addi	a1,a1,580 # 1244 <board_name+0x244>
 dbc:	00040513          	mv	a0,s0
 dc0:	e38ff0ef          	jal	ra,3f8 <strcmp>
 dc4:	02051663          	bnez	a0,df0 <main+0x648>
 dc8:	01412503          	lw	a0,20(sp)
 dcc:	00050863          	beqz	a0,ddc <main+0x634>
 dd0:	f34ff0ef          	jal	ra,504 <atoi>
 dd4:	00012783          	lw	a5,0(sp)
 dd8:	00a7a623          	sw	a0,12(a5)
 ddc:	00012783          	lw	a5,0(sp)
 de0:	00001537          	lui	a0,0x1
 de4:	24c50513          	addi	a0,a0,588 # 124c <board_name+0x24c>
 de8:	00c7a583          	lw	a1,12(a5)
 dec:	fc1ff06f          	j	dac <main+0x604>
 df0:	000015b7          	lui	a1,0x1
 df4:	25858593          	addi	a1,a1,600 # 1258 <board_name+0x258>
 df8:	00040513          	mv	a0,s0
 dfc:	dfcff0ef          	jal	ra,3f8 <strcmp>
 e00:	02051a63          	bnez	a0,e34 <main+0x68c>
 e04:	01412503          	lw	a0,20(sp)
 e08:	00050c63          	beqz	a0,e20 <main+0x678>
 e0c:	f4cff0ef          	jal	ra,558 <xtoi>
 e10:	00012783          	lw	a5,0(sp)
 e14:	01051513          	slli	a0,a0,0x10
 e18:	01055513          	srli	a0,a0,0x10
 e1c:	00a79523          	sh	a0,10(a5)
 e20:	00012783          	lw	a5,0(sp)
 e24:	00001537          	lui	a0,0x1
 e28:	26050513          	addi	a0,a0,608 # 1260 <board_name+0x260>
 e2c:	00a7d583          	lhu	a1,10(a5)
 e30:	f7dff06f          	j	dac <main+0x604>
 e34:	000015b7          	lui	a1,0x1
 e38:	26c58593          	addi	a1,a1,620 # 126c <board_name+0x26c>
 e3c:	00040513          	mv	a0,s0
 e40:	db8ff0ef          	jal	ra,3f8 <strcmp>
 e44:	02051a63          	bnez	a0,e78 <main+0x6d0>
 e48:	01412503          	lw	a0,20(sp)
 e4c:	eb8ff0ef          	jal	ra,504 <atoi>
 e50:	00050413          	mv	s0,a0
 e54:	01812503          	lw	a0,24(sp)
 e58:	eacff0ef          	jal	ra,504 <atoi>
 e5c:	00050593          	mv	a1,a0
 e60:	00040513          	mv	a0,s0
 e64:	f84ff0ef          	jal	ra,5e8 <__mulsi3>
 e68:	00050593          	mv	a1,a0
 e6c:	00001537          	lui	a0,0x1
 e70:	27050513          	addi	a0,a0,624 # 1270 <board_name+0x270>
 e74:	f39ff06f          	j	dac <main+0x604>
 e78:	000015b7          	lui	a1,0x1
 e7c:	27c58593          	addi	a1,a1,636 # 127c <board_name+0x27c>
 e80:	00040513          	mv	a0,s0
 e84:	d74ff0ef          	jal	ra,3f8 <strcmp>
 e88:	04051863          	bnez	a0,ed8 <main+0x730>
 e8c:	01412503          	lw	a0,20(sp)
 e90:	e74ff0ef          	jal	ra,504 <atoi>
 e94:	00050413          	mv	s0,a0
 e98:	01812503          	lw	a0,24(sp)
 e9c:	e68ff0ef          	jal	ra,504 <atoi>
 ea0:	00050493          	mv	s1,a0
 ea4:	00050593          	mv	a1,a0
 ea8:	00040513          	mv	a0,s0
 eac:	881ff0ef          	jal	ra,72c <__modsi3>
 eb0:	00a12223          	sw	a0,4(sp)
 eb4:	00048593          	mv	a1,s1
 eb8:	00040513          	mv	a0,s0
 ebc:	869ff0ef          	jal	ra,724 <__divsi3>
 ec0:	00412603          	lw	a2,4(sp)
 ec4:	00050593          	mv	a1,a0
 ec8:	00001537          	lui	a0,0x1
 ecc:	28050513          	addi	a0,a0,640 # 1280 <board_name+0x280>
 ed0:	c20ff0ef          	jal	ra,2f0 <printf>
 ed4:	a2dff06f          	j	900 <main+0x158>
 ed8:	000015b7          	lui	a1,0x1
 edc:	29458593          	addi	a1,a1,660 # 1294 <board_name+0x294>
 ee0:	00040513          	mv	a0,s0
 ee4:	d14ff0ef          	jal	ra,3f8 <strcmp>
 ee8:	04051663          	bnez	a0,f34 <main+0x78c>
 eec:	01412503          	lw	a0,20(sp)
 ef0:	e14ff0ef          	jal	ra,504 <atoi>
 ef4:	00050413          	mv	s0,a0
 ef8:	01812503          	lw	a0,24(sp)
 efc:	e08ff0ef          	jal	ra,504 <atoi>
 f00:	00050493          	mv	s1,a0
 f04:	01c12503          	lw	a0,28(sp)
 f08:	dfcff0ef          	jal	ra,504 <atoi>
 f0c:	01051613          	slli	a2,a0,0x10
 f10:	01049593          	slli	a1,s1,0x10
 f14:	4105d593          	srai	a1,a1,0x10
 f18:	41065613          	srai	a2,a2,0x10
 f1c:	00040513          	mv	a0,s0
 f20:	e78ff0ef          	jal	ra,598 <mac>
 f24:	00050593          	mv	a1,a0
 f28:	00001537          	lui	a0,0x1
 f2c:	29850513          	addi	a0,a0,664 # 1298 <board_name+0x298>
 f30:	e7dff06f          	j	dac <main+0x604>
 f34:	00044783          	lbu	a5,0(s0)
 f38:	9c0784e3          	beqz	a5,900 <main+0x158>
 f3c:	00001537          	lui	a0,0x1
 f40:	00040593          	mv	a1,s0
 f44:	2a450513          	addi	a0,a0,676 # 12a4 <board_name+0x2a4>
 f48:	e65ff06f          	j	dac <main+0x604>
