
Allocating common symbols
Common symbol       size              file

io                  0x10              io.o

Memory Configuration

Name             Origin             Length             Attributes
ROM              0x0000000000000000 0x0000000000001000 x !rw
RAM              0x0000000000001000 0x0000000000001000 rw !x
IO               0x0000000080000000 0x0000000000000010 rw !x
*default*        0x0000000000000000 0xffffffffffffffff

Linker script and memory map


.text           0x0000000000000000      0x83c
 boot.o(.text)
 .text          0x0000000000000000       0x9c boot.o
                0x0000000000000000                boot
 *(.text)
 .text          0x000000000000009c        0x0 io.o
 .text          0x000000000000009c      0x734 stdio.o
                0x000000000000009c                getchar
                0x00000000000000b8                putchar
                0x00000000000000f8                gets
                0x000000000000017c                putstr
                0x00000000000001bc                puts
                0x00000000000001d8                putx
                0x00000000000002b8                putd
                0x000000000000038c                printf
                0x0000000000000460                strncmp
                0x0000000000000494                strcmp
                0x000000000000049c                strlen
                0x00000000000004c0                memcpy
                0x00000000000004e4                memset
                0x0000000000000500                strtok
                0x00000000000005a0                atoi
                0x00000000000005f4                xtoi
                0x0000000000000634                mac
                0x000000000000063c                __mului3
                0x0000000000000684                __mulsi3
                0x00000000000006dc                __divu_modui3
                0x000000000000072c                __divui3
                0x0000000000000734                __modui3
                0x000000000000073c                __divs_modsi3
                0x00000000000007c0                __divsi3
                0x00000000000007c8                __modsi3
 .text          0x00000000000007d0        0x0 main.o
 .text          0x00000000000007d0       0x6c banner.o
                0x00000000000007d0                banner

.text.startup   0x000000000000083c      0x6e8
 .text.startup  0x000000000000083c      0x6e8 main.o
                0x000000000000083c                main

.data           0x0000000000001000      0x470
 *(.data)
 .data          0x0000000000001000        0x0 boot.o
 .data          0x0000000000001000       0x18 io.o
                0x0000000000001000                board_name
 .data          0x0000000000001018        0x0 stdio.o
 .data          0x0000000000001018        0x0 main.o
 .data          0x0000000000001018        0x0 banner.o
 *(.bss)
 .bss           0x0000000000001018        0x0 boot.o
 .bss           0x0000000000001018        0x0 io.o
 .bss           0x0000000000001018        0x0 stdio.o
 .bss           0x0000000000001018        0x0 main.o
 .bss           0x0000000000001018        0x0 banner.o
 *(.rela*)
 .rela.text     0x0000000000001018        0x0 boot.o
 .rela.text.startup
                0x0000000000001018        0x0 boot.o
 *(.rodata*)
 .rodata.str1.4
                0x0000000000001018        0x3 boot.o
 *fill*         0x000000000000101b        0x1 
 .rodata.str1.4
                0x000000000000101c       0x71 io.o
 *fill*         0x000000000000108d        0x3 
 .rodata        0x0000000000001090       0x28 stdio.o
 .rodata.str1.4
                0x00000000000010b8       0x19 stdio.o
 *fill*         0x00000000000010d1        0x3 
 .rodata.str1.4
                0x00000000000010d4      0x287 main.o
 *fill*         0x000000000000135b        0x1 
 .rodata.str1.4
                0x000000000000135c      0x110 banner.o
                                        0x10d (size before relaxing)
 *(.sbss)
 .sbss          0x000000000000146c        0x4 stdio.o

.io             0x0000000080000000       0x10
 io.o(COMMON)
 COMMON         0x0000000080000000       0x10 io.o
                0x0000000080000000                io
LOAD boot.o
LOAD stdio.o
LOAD main.o
LOAD io.o
LOAD banner.o
OUTPUT(darksocv.o elf32-littleriscv)

.comment        0x0000000000000000       0x29
 .comment       0x0000000000000000       0x29 boot.o
                                         0x2a (size before relaxing)
 .comment       0x0000000000000029       0x2a io.o
 .comment       0x0000000000000029       0x2a stdio.o
 .comment       0x0000000000000029       0x2a main.o
 .comment       0x0000000000000029       0x2a banner.o
