
darksocv.o:     file format elf32-littleriscv


Disassembly of section .text:

00000000 <_boot>:
   0:	00002517          	auipc	a0,0x2
   4:	af050513          	addi	a0,a0,-1296 # 1af0 <threads>
   8:	00052583          	lw	a1,0(a0)
   c:	00158613          	addi	a2,a1,1
  10:	00c52023          	sw	a2,0(a0)
  14:	80000697          	auipc	a3,0x80000
  18:	fec68693          	addi	a3,a3,-20 # 80000000 <io+0x0>
  1c:	04059263          	bnez	a1,60 <_multi_thread_boot>

00000020 <_normal_boot>:
  20:	00002117          	auipc	sp,0x2
  24:	fe010113          	addi	sp,sp,-32 # 2000 <_stack>
  28:	00002197          	auipc	gp,0x2
  2c:	2c118193          	addi	gp,gp,705 # 22e9 <_global>
  30:	4f9000ef          	jal	ra,d28 <banner>
  34:	00002697          	auipc	a3,0x2
  38:	fcc68693          	addi	a3,a3,-52 # 2000 <_stack>
  3c:	00002617          	auipc	a2,0x2
  40:	abc60613          	addi	a2,a2,-1348 # 1af8 <_heap>
  44:	40c68733          	sub	a4,a3,a2
  48:	00000593          	li	a1,0
  4c:	00002517          	auipc	a0,0x2
  50:	a6c50513          	addi	a0,a0,-1428 # 1ab8 <_boot0msg>
  54:	724000ef          	jal	ra,778 <printf>
  58:	5b9000ef          	jal	ra,e10 <main>
  5c:	fc5ff06f          	j	20 <_normal_boot>

00000060 <_multi_thread_boot>:
  60:	00b69523          	sh	a1,10(a3)
  64:	00158593          	addi	a1,a1,1
  68:	ff9ff06f          	j	60 <_multi_thread_boot>

0000006c <check4rv32i>:
  6c:	00000793          	li	a5,0
  70:	00100f93          	li	t6,1
  74:	40ff8533          	sub	a0,t6,a5
  78:	00008067          	ret

0000007c <board_name>:
  7c:	00001797          	auipc	a5,0x1
  80:	4d078793          	addi	a5,a5,1232 # 154c <main+0x73c>
  84:	0a050663          	beqz	a0,130 <board_name+0xb4>
  88:	00001797          	auipc	a5,0x1
  8c:	00100713          	li	a4,1
  90:	4d478793          	addi	a5,a5,1236 # 155c <main+0x74c>
  94:	08e50e63          	beq	a0,a4,130 <board_name+0xb4>
  98:	00001797          	auipc	a5,0x1
  9c:	00200713          	li	a4,2
  a0:	4dc78793          	addi	a5,a5,1244 # 1574 <main+0x764>
  a4:	08e50663          	beq	a0,a4,130 <board_name+0xb4>
  a8:	00001797          	auipc	a5,0x1
  ac:	00300713          	li	a4,3
  b0:	4e078793          	addi	a5,a5,1248 # 1588 <main+0x778>
  b4:	06e50e63          	beq	a0,a4,130 <board_name+0xb4>
  b8:	00001797          	auipc	a5,0x1
  bc:	00400713          	li	a4,4
  c0:	4e478793          	addi	a5,a5,1252 # 159c <main+0x78c>
  c4:	06e50663          	beq	a0,a4,130 <board_name+0xb4>
  c8:	00001797          	auipc	a5,0x1
  cc:	00500713          	li	a4,5
  d0:	4e878793          	addi	a5,a5,1256 # 15b0 <main+0x7a0>
  d4:	04e50e63          	beq	a0,a4,130 <board_name+0xb4>
  d8:	00001797          	auipc	a5,0x1
  dc:	00600713          	li	a4,6
  e0:	4f078793          	addi	a5,a5,1264 # 15c8 <main+0x7b8>
  e4:	04e50663          	beq	a0,a4,130 <board_name+0xb4>
  e8:	00001797          	auipc	a5,0x1
  ec:	00700713          	li	a4,7
  f0:	4f478793          	addi	a5,a5,1268 # 15dc <main+0x7cc>
  f4:	02e50e63          	beq	a0,a4,130 <board_name+0xb4>
  f8:	00001797          	auipc	a5,0x1
  fc:	00800713          	li	a4,8
 100:	43878793          	addi	a5,a5,1080 # 1530 <main+0x720>
 104:	02e50663          	beq	a0,a4,130 <board_name+0xb4>
 108:	00001797          	auipc	a5,0x1
 10c:	00900713          	li	a4,9
 110:	4ec78793          	addi	a5,a5,1260 # 15f4 <main+0x7e4>
 114:	00e50e63          	beq	a0,a4,130 <board_name+0xb4>
 118:	00001797          	auipc	a5,0x1
 11c:	00a00713          	li	a4,10
 120:	3fc78793          	addi	a5,a5,1020 # 1514 <main+0x704>
 124:	00e50663          	beq	a0,a4,130 <board_name+0xb4>
 128:	00001797          	auipc	a5,0x1
 12c:	4e078793          	addi	a5,a5,1248 # 1608 <main+0x7f8>
 130:	00078513          	mv	a0,a5
 134:	00008067          	ret

00000138 <irq_handler>:
 138:	ff410113          	addi	sp,sp,-12
 13c:	00f12023          	sw	a5,0(sp)
 140:	80000797          	auipc	a5,0x80000
 144:	00e12223          	sw	a4,4(sp)
 148:	00d12423          	sw	a3,8(sp)
 14c:	ec078793          	addi	a5,a5,-320 # 80000000 <io+0x0>
 150:	0037c783          	lbu	a5,3(a5)
 154:	08000713          	li	a4,128
 158:	00f70c63          	beq	a4,a5,170 <irq_handler+0x38>
 15c:	00812683          	lw	a3,8(sp)
 160:	00412703          	lw	a4,4(sp)
 164:	00012783          	lw	a5,0(sp)
 168:	00c10113          	addi	sp,sp,12
 16c:	30200073          	mret
 170:	00002797          	auipc	a5,0x2
 174:	97c7a783          	lw	a5,-1668(a5) # 1aec <utimers>
 178:	00002717          	auipc	a4,0x2
 17c:	fff78693          	addi	a3,a5,-1
 180:	96d72a23          	sw	a3,-1676(a4) # 1aec <utimers>
 184:	02079c63          	bnez	a5,1bc <irq_handler+0x84>
 188:	80000797          	auipc	a5,0x80000
 18c:	e7878793          	addi	a5,a5,-392 # 80000000 <io+0x0>
 190:	0087d783          	lhu	a5,8(a5)
 194:	80000717          	auipc	a4,0x80000
 198:	e6c70713          	addi	a4,a4,-404 # 80000000 <io+0x0>
 19c:	00178793          	addi	a5,a5,1
 1a0:	01079793          	slli	a5,a5,0x10
 1a4:	0107d793          	srli	a5,a5,0x10
 1a8:	00f71423          	sh	a5,8(a4)
 1ac:	000f4737          	lui	a4,0xf4
 1b0:	00002797          	auipc	a5,0x2
 1b4:	23f70713          	addi	a4,a4,575 # f423f <_global+0xf1f56>
 1b8:	92e7ae23          	sw	a4,-1732(a5) # 1aec <utimers>
 1bc:	80000797          	auipc	a5,0x80000
 1c0:	e4478793          	addi	a5,a5,-444 # 80000000 <io+0x0>
 1c4:	f8000713          	li	a4,-128
 1c8:	00e781a3          	sb	a4,3(a5)
 1cc:	00812683          	lw	a3,8(sp)
 1d0:	00412703          	lw	a4,4(sp)
 1d4:	00012783          	lw	a5,0(sp)
 1d8:	00c10113          	addi	sp,sp,12
 1dc:	30200073          	mret

000001e0 <__udiv_umod_si3.part.0>:
 1e0:	00050713          	mv	a4,a0
 1e4:	00100793          	li	a5,1
 1e8:	00a5fa63          	bleu	a0,a1,1fc <__udiv_umod_si3.part.0+0x1c>
 1ec:	0005c863          	bltz	a1,1fc <__udiv_umod_si3.part.0+0x1c>
 1f0:	00159593          	slli	a1,a1,0x1
 1f4:	00179793          	slli	a5,a5,0x1
 1f8:	fee5eae3          	bltu	a1,a4,1ec <__udiv_umod_si3.part.0+0xc>
 1fc:	00000513          	li	a0,0
 200:	02070e63          	beqz	a4,23c <__udiv_umod_si3.part.0+0x5c>
 204:	00078e63          	beqz	a5,220 <__udiv_umod_si3.part.0+0x40>
 208:	02b76263          	bltu	a4,a1,22c <__udiv_umod_si3.part.0+0x4c>
 20c:	40b70733          	sub	a4,a4,a1
 210:	00f50533          	add	a0,a0,a5
 214:	0015d593          	srli	a1,a1,0x1
 218:	0017d793          	srli	a5,a5,0x1
 21c:	fe0714e3          	bnez	a4,204 <__udiv_umod_si3.part.0+0x24>
 220:	00061c63          	bnez	a2,238 <__udiv_umod_si3.part.0+0x58>
 224:	00070513          	mv	a0,a4
 228:	00008067          	ret
 22c:	0017d793          	srli	a5,a5,0x1
 230:	0015d593          	srli	a1,a1,0x1
 234:	fd1ff06f          	j	204 <__udiv_umod_si3.part.0+0x24>
 238:	00008067          	ret
 23c:	00070513          	mv	a0,a4
 240:	fe1ff06f          	j	220 <__udiv_umod_si3.part.0+0x40>

00000244 <__div_mod_si3.part.1>:
 244:	ff010113          	addi	sp,sp,-16
 248:	00812423          	sw	s0,8(sp)
 24c:	00912223          	sw	s1,4(sp)
 250:	00112623          	sw	ra,12(sp)
 254:	00060493          	mv	s1,a2
 258:	00000413          	li	s0,0
 25c:	00055663          	bgez	a0,268 <__div_mod_si3.part.1+0x24>
 260:	40a00533          	neg	a0,a0
 264:	00100413          	li	s0,1
 268:	00012023          	sw	zero,0(sp)
 26c:	0005d863          	bgez	a1,27c <__div_mod_si3.part.1+0x38>
 270:	00100793          	li	a5,1
 274:	40b005b3          	neg	a1,a1
 278:	00f12023          	sw	a5,0(sp)
 27c:	00048613          	mv	a2,s1
 280:	f61ff0ef          	jal	ra,1e0 <__udiv_umod_si3.part.0>
 284:	02048263          	beqz	s1,2a8 <__div_mod_si3.part.1+0x64>
 288:	00012783          	lw	a5,0(sp)
 28c:	00f40463          	beq	s0,a5,294 <__div_mod_si3.part.1+0x50>
 290:	40a00533          	neg	a0,a0
 294:	00c12083          	lw	ra,12(sp)
 298:	00812403          	lw	s0,8(sp)
 29c:	00412483          	lw	s1,4(sp)
 2a0:	01010113          	addi	sp,sp,16
 2a4:	00008067          	ret
 2a8:	fe0414e3          	bnez	s0,290 <__div_mod_si3.part.1+0x4c>
 2ac:	00c12083          	lw	ra,12(sp)
 2b0:	00812403          	lw	s0,8(sp)
 2b4:	00412483          	lw	s1,4(sp)
 2b8:	01010113          	addi	sp,sp,16
 2bc:	00008067          	ret

000002c0 <getchar>:
 2c0:	80000797          	auipc	a5,0x80000
 2c4:	d4078793          	addi	a5,a5,-704 # 80000000 <io+0x0>
 2c8:	0047c783          	lbu	a5,4(a5)
 2cc:	0027f793          	andi	a5,a5,2
 2d0:	fe0788e3          	beqz	a5,2c0 <getchar>
 2d4:	80000797          	auipc	a5,0x80000
 2d8:	d2c78793          	addi	a5,a5,-724 # 80000000 <io+0x0>
 2dc:	0057c503          	lbu	a0,5(a5)
 2e0:	00008067          	ret

000002e4 <putchar>:
 2e4:	00a00793          	li	a5,10
 2e8:	02f50863          	beq	a0,a5,318 <putchar+0x34>
 2ec:	80000797          	auipc	a5,0x80000
 2f0:	d1478793          	addi	a5,a5,-748 # 80000000 <io+0x0>
 2f4:	0047c783          	lbu	a5,4(a5)
 2f8:	0017f793          	andi	a5,a5,1
 2fc:	fe0798e3          	bnez	a5,2ec <putchar+0x8>
 300:	80000797          	auipc	a5,0x80000
 304:	0ff57713          	andi	a4,a0,255
 308:	d0078793          	addi	a5,a5,-768 # 80000000 <io+0x0>
 30c:	00e782a3          	sb	a4,5(a5)
 310:	00070513          	mv	a0,a4
 314:	00008067          	ret
 318:	80000797          	auipc	a5,0x80000
 31c:	ce878793          	addi	a5,a5,-792 # 80000000 <io+0x0>
 320:	0047c783          	lbu	a5,4(a5)
 324:	0017f793          	andi	a5,a5,1
 328:	fe0798e3          	bnez	a5,318 <putchar+0x34>
 32c:	80000797          	auipc	a5,0x80000
 330:	cd478793          	addi	a5,a5,-812 # 80000000 <io+0x0>
 334:	00d00713          	li	a4,13
 338:	00e782a3          	sb	a4,5(a5)
 33c:	fb1ff06f          	j	2ec <putchar+0x8>

00000340 <gets>:
 340:	fff58593          	addi	a1,a1,-1
 344:	00050713          	mv	a4,a0
 348:	06058863          	beqz	a1,3b8 <gets+0x78>
 34c:	00a00693          	li	a3,10
 350:	00d00613          	li	a2,13
 354:	00800313          	li	t1,8
 358:	80000797          	auipc	a5,0x80000
 35c:	ca878793          	addi	a5,a5,-856 # 80000000 <io+0x0>
 360:	0047c783          	lbu	a5,4(a5)
 364:	0027f793          	andi	a5,a5,2
 368:	fe0788e3          	beqz	a5,358 <gets+0x18>
 36c:	80000797          	auipc	a5,0x80000
 370:	c9478793          	addi	a5,a5,-876 # 80000000 <io+0x0>
 374:	0057c783          	lbu	a5,5(a5)
 378:	0ff7f293          	andi	t0,a5,255
 37c:	02f68e63          	beq	a3,a5,3b8 <gets+0x78>
 380:	02c28c63          	beq	t0,a2,3b8 <gets+0x78>
 384:	80000797          	auipc	a5,0x80000
 388:	c7c78793          	addi	a5,a5,-900 # 80000000 <io+0x0>
 38c:	0047c783          	lbu	a5,4(a5)
 390:	0017f793          	andi	a5,a5,1
 394:	fe0798e3          	bnez	a5,384 <gets+0x44>
 398:	80000797          	auipc	a5,0x80000
 39c:	c6878793          	addi	a5,a5,-920 # 80000000 <io+0x0>
 3a0:	005782a3          	sb	t0,5(a5)
 3a4:	06628a63          	beq	t0,t1,418 <gets+0xd8>
 3a8:	00570023          	sb	t0,0(a4)
 3ac:	fff58593          	addi	a1,a1,-1
 3b0:	00170713          	addi	a4,a4,1
 3b4:	fa0592e3          	bnez	a1,358 <gets+0x18>
 3b8:	80000797          	auipc	a5,0x80000
 3bc:	c4878793          	addi	a5,a5,-952 # 80000000 <io+0x0>
 3c0:	0047c783          	lbu	a5,4(a5)
 3c4:	0017f793          	andi	a5,a5,1
 3c8:	fe0798e3          	bnez	a5,3b8 <gets+0x78>
 3cc:	80000797          	auipc	a5,0x80000
 3d0:	c3478793          	addi	a5,a5,-972 # 80000000 <io+0x0>
 3d4:	00d00693          	li	a3,13
 3d8:	00d782a3          	sb	a3,5(a5)
 3dc:	80000797          	auipc	a5,0x80000
 3e0:	c2478793          	addi	a5,a5,-988 # 80000000 <io+0x0>
 3e4:	0047c783          	lbu	a5,4(a5)
 3e8:	0017f793          	andi	a5,a5,1
 3ec:	fe0798e3          	bnez	a5,3dc <gets+0x9c>
 3f0:	40e507b3          	sub	a5,a0,a4
 3f4:	80000697          	auipc	a3,0x80000
 3f8:	c0c68693          	addi	a3,a3,-1012 # 80000000 <io+0x0>
 3fc:	00a00613          	li	a2,10
 400:	00f037b3          	snez	a5,a5
 404:	00c682a3          	sb	a2,5(a3)
 408:	40f007b3          	neg	a5,a5
 40c:	00070023          	sb	zero,0(a4)
 410:	00f57533          	and	a0,a0,a5
 414:	00008067          	ret
 418:	00e50a63          	beq	a0,a4,42c <gets+0xec>
 41c:	fe070fa3          	sb	zero,-1(a4)
 420:	fff70713          	addi	a4,a4,-1
 424:	f2059ae3          	bnez	a1,358 <gets+0x18>
 428:	f91ff06f          	j	3b8 <gets+0x78>
 42c:	fff58593          	addi	a1,a1,-1
 430:	f20594e3          	bnez	a1,358 <gets+0x18>
 434:	f85ff06f          	j	3b8 <gets+0x78>

00000438 <putstr>:
 438:	00001797          	auipc	a5,0x1
 43c:	55478793          	addi	a5,a5,1364 # 198c <main+0xb7c>
 440:	00051463          	bnez	a0,448 <putstr+0x10>
 444:	00078513          	mv	a0,a5
 448:	00054703          	lbu	a4,0(a0)
 44c:	02070e63          	beqz	a4,488 <putstr+0x50>
 450:	00a00693          	li	a3,10
 454:	00d00613          	li	a2,13
 458:	00150513          	addi	a0,a0,1
 45c:	02d70863          	beq	a4,a3,48c <putstr+0x54>
 460:	80000797          	auipc	a5,0x80000
 464:	ba078793          	addi	a5,a5,-1120 # 80000000 <io+0x0>
 468:	0047c783          	lbu	a5,4(a5)
 46c:	0017f793          	andi	a5,a5,1
 470:	fe0798e3          	bnez	a5,460 <putstr+0x28>
 474:	80000797          	auipc	a5,0x80000
 478:	b8c78793          	addi	a5,a5,-1140 # 80000000 <io+0x0>
 47c:	00e782a3          	sb	a4,5(a5)
 480:	00054703          	lbu	a4,0(a0)
 484:	fc071ae3          	bnez	a4,458 <putstr+0x20>
 488:	00008067          	ret
 48c:	80000797          	auipc	a5,0x80000
 490:	b7478793          	addi	a5,a5,-1164 # 80000000 <io+0x0>
 494:	0047c783          	lbu	a5,4(a5)
 498:	0017f793          	andi	a5,a5,1
 49c:	fe0798e3          	bnez	a5,48c <putstr+0x54>
 4a0:	80000797          	auipc	a5,0x80000
 4a4:	b6078793          	addi	a5,a5,-1184 # 80000000 <io+0x0>
 4a8:	00c782a3          	sb	a2,5(a5)
 4ac:	fb5ff06f          	j	460 <putstr+0x28>

000004b0 <puts>:
 4b0:	ff410113          	addi	sp,sp,-12
 4b4:	00112423          	sw	ra,8(sp)
 4b8:	f81ff0ef          	jal	ra,438 <putstr>
 4bc:	80000797          	auipc	a5,0x80000
 4c0:	b4478793          	addi	a5,a5,-1212 # 80000000 <io+0x0>
 4c4:	0047c783          	lbu	a5,4(a5)
 4c8:	0017f793          	andi	a5,a5,1
 4cc:	fe0798e3          	bnez	a5,4bc <puts+0xc>
 4d0:	80000797          	auipc	a5,0x80000
 4d4:	b3078793          	addi	a5,a5,-1232 # 80000000 <io+0x0>
 4d8:	00d00713          	li	a4,13
 4dc:	00e782a3          	sb	a4,5(a5)
 4e0:	80000797          	auipc	a5,0x80000
 4e4:	b2078793          	addi	a5,a5,-1248 # 80000000 <io+0x0>
 4e8:	0047c783          	lbu	a5,4(a5)
 4ec:	0017f793          	andi	a5,a5,1
 4f0:	fe0798e3          	bnez	a5,4e0 <puts+0x30>
 4f4:	80000797          	auipc	a5,0x80000
 4f8:	b0c78793          	addi	a5,a5,-1268 # 80000000 <io+0x0>
 4fc:	00a00713          	li	a4,10
 500:	00e782a3          	sb	a4,5(a5)
 504:	00812083          	lw	ra,8(sp)
 508:	00a00513          	li	a0,10
 50c:	00c10113          	addi	sp,sp,12
 510:	00008067          	ret

00000514 <putdx>:
 514:	00001797          	auipc	a5,0x1
 518:	43878793          	addi	a5,a5,1080 # 194c <main+0xb3c>
 51c:	0207a603          	lw	a2,32(a5)
 520:	fa810113          	addi	sp,sp,-88
 524:	0007a703          	lw	a4,0(a5)
 528:	04c12023          	sw	a2,64(sp)
 52c:	0247a603          	lw	a2,36(a5)
 530:	02e12023          	sw	a4,32(sp)
 534:	0047a703          	lw	a4,4(a5)
 538:	04c12223          	sw	a2,68(sp)
 53c:	0287a603          	lw	a2,40(a5)
 540:	0087a383          	lw	t2,8(a5)
 544:	00c7a283          	lw	t0,12(a5)
 548:	04c12423          	sw	a2,72(sp)
 54c:	02c7a603          	lw	a2,44(a5)
 550:	0107a303          	lw	t1,16(a5)
 554:	04812823          	sw	s0,80(sp)
 558:	00c12623          	sw	a2,12(sp)
 55c:	0307a603          	lw	a2,48(a5)
 560:	0147a403          	lw	s0,20(a5)
 564:	02e12223          	sw	a4,36(sp)
 568:	00c12823          	sw	a2,16(sp)
 56c:	0347a603          	lw	a2,52(a5)
 570:	01c7a703          	lw	a4,28(a5)
 574:	0187a683          	lw	a3,24(a5)
 578:	00c12a23          	sw	a2,20(sp)
 57c:	0387a603          	lw	a2,56(a5)
 580:	03c7a783          	lw	a5,60(a5)
 584:	04912623          	sw	s1,76(sp)
 588:	00c12c23          	sw	a2,24(sp)
 58c:	04112a23          	sw	ra,84(sp)
 590:	02712423          	sw	t2,40(sp)
 594:	02512623          	sw	t0,44(sp)
 598:	02612823          	sw	t1,48(sp)
 59c:	02812a23          	sw	s0,52(sp)
 5a0:	02d12c23          	sw	a3,56(sp)
 5a4:	02e12e23          	sw	a4,60(sp)
 5a8:	00f12e23          	sw	a5,28(sp)
 5ac:	00058613          	mv	a2,a1
 5b0:	00c10493          	addi	s1,sp,12
 5b4:	00058463          	beqz	a1,5bc <putdx+0xa8>
 5b8:	02010493          	addi	s1,sp,32
 5bc:	0004a583          	lw	a1,0(s1)
 5c0:	08058a63          	beqz	a1,654 <putdx+0x140>
 5c4:	00050693          	mv	a3,a0
 5c8:	00448493          	addi	s1,s1,4
 5cc:	01800713          	li	a4,24
 5d0:	00100293          	li	t0,1
 5d4:	00a00413          	li	s0,10
 5d8:	00558463          	beq	a1,t0,5e0 <putdx+0xcc>
 5dc:	06b6e463          	bltu	a3,a1,644 <putdx+0x130>
 5e0:	0a060863          	beqz	a2,690 <putdx+0x17c>
 5e4:	00068513          	mv	a0,a3
 5e8:	00c12423          	sw	a2,8(sp)
 5ec:	00e12223          	sw	a4,4(sp)
 5f0:	00d12023          	sw	a3,0(sp)
 5f4:	668000ef          	jal	ra,c5c <__udivsi3>
 5f8:	00a00593          	li	a1,10
 5fc:	674000ef          	jal	ra,c70 <__umodsi3>
 600:	00001797          	auipc	a5,0x1
 604:	39478793          	addi	a5,a5,916 # 1994 <main+0xb84>
 608:	00f50533          	add	a0,a0,a5
 60c:	00054583          	lbu	a1,0(a0)
 610:	00012683          	lw	a3,0(sp)
 614:	00100293          	li	t0,1
 618:	00412703          	lw	a4,4(sp)
 61c:	00812603          	lw	a2,8(sp)
 620:	04858463          	beq	a1,s0,668 <putdx+0x154>
 624:	80000797          	auipc	a5,0x80000
 628:	9dc78793          	addi	a5,a5,-1572 # 80000000 <io+0x0>
 62c:	0047c783          	lbu	a5,4(a5)
 630:	0017f793          	andi	a5,a5,1
 634:	fe0798e3          	bnez	a5,624 <putdx+0x110>
 638:	80000797          	auipc	a5,0x80000
 63c:	9c878793          	addi	a5,a5,-1592 # 80000000 <io+0x0>
 640:	00b782a3          	sb	a1,5(a5)
 644:	00448493          	addi	s1,s1,4
 648:	ffc4a583          	lw	a1,-4(s1)
 64c:	ff870713          	addi	a4,a4,-8
 650:	f80594e3          	bnez	a1,5d8 <putdx+0xc4>
 654:	05412083          	lw	ra,84(sp)
 658:	05012403          	lw	s0,80(sp)
 65c:	04c12483          	lw	s1,76(sp)
 660:	05810113          	addi	sp,sp,88
 664:	00008067          	ret
 668:	80000797          	auipc	a5,0x80000
 66c:	99878793          	addi	a5,a5,-1640 # 80000000 <io+0x0>
 670:	0047c783          	lbu	a5,4(a5)
 674:	0017f793          	andi	a5,a5,1
 678:	fe0798e3          	bnez	a5,668 <putdx+0x154>
 67c:	80000797          	auipc	a5,0x80000
 680:	98478793          	addi	a5,a5,-1660 # 80000000 <io+0x0>
 684:	00d00513          	li	a0,13
 688:	00a782a3          	sb	a0,5(a5)
 68c:	f99ff06f          	j	624 <putdx+0x110>
 690:	00470793          	addi	a5,a4,4
 694:	00f6d7b3          	srl	a5,a3,a5
 698:	00001597          	auipc	a1,0x1
 69c:	00f7f793          	andi	a5,a5,15
 6a0:	2fc58593          	addi	a1,a1,764 # 1994 <main+0xb84>
 6a4:	00b787b3          	add	a5,a5,a1
 6a8:	0007c503          	lbu	a0,0(a5)
 6ac:	06850663          	beq	a0,s0,718 <putdx+0x204>
 6b0:	80000797          	auipc	a5,0x80000
 6b4:	95078793          	addi	a5,a5,-1712 # 80000000 <io+0x0>
 6b8:	0047c783          	lbu	a5,4(a5)
 6bc:	0017f793          	andi	a5,a5,1
 6c0:	fe0798e3          	bnez	a5,6b0 <putdx+0x19c>
 6c4:	00e6d7b3          	srl	a5,a3,a4
 6c8:	00f7f793          	andi	a5,a5,15
 6cc:	00b785b3          	add	a1,a5,a1
 6d0:	0005c583          	lbu	a1,0(a1)
 6d4:	80000797          	auipc	a5,0x80000
 6d8:	92c78793          	addi	a5,a5,-1748 # 80000000 <io+0x0>
 6dc:	00a782a3          	sb	a0,5(a5)
 6e0:	06858063          	beq	a1,s0,740 <putdx+0x22c>
 6e4:	80000797          	auipc	a5,0x80000
 6e8:	91c78793          	addi	a5,a5,-1764 # 80000000 <io+0x0>
 6ec:	0047c783          	lbu	a5,4(a5)
 6f0:	0017f793          	andi	a5,a5,1
 6f4:	fe0798e3          	bnez	a5,6e4 <putdx+0x1d0>
 6f8:	80000797          	auipc	a5,0x80000
 6fc:	90878793          	addi	a5,a5,-1784 # 80000000 <io+0x0>
 700:	00b782a3          	sb	a1,5(a5)
 704:	00448493          	addi	s1,s1,4
 708:	ffc4a583          	lw	a1,-4(s1)
 70c:	ff870713          	addi	a4,a4,-8
 710:	ec0594e3          	bnez	a1,5d8 <putdx+0xc4>
 714:	f41ff06f          	j	654 <putdx+0x140>
 718:	80000797          	auipc	a5,0x80000
 71c:	8e878793          	addi	a5,a5,-1816 # 80000000 <io+0x0>
 720:	0047c783          	lbu	a5,4(a5)
 724:	0017f793          	andi	a5,a5,1
 728:	fe0798e3          	bnez	a5,718 <putdx+0x204>
 72c:	80000797          	auipc	a5,0x80000
 730:	8d478793          	addi	a5,a5,-1836 # 80000000 <io+0x0>
 734:	00d00313          	li	t1,13
 738:	006782a3          	sb	t1,5(a5)
 73c:	f75ff06f          	j	6b0 <putdx+0x19c>
 740:	80000797          	auipc	a5,0x80000
 744:	8c078793          	addi	a5,a5,-1856 # 80000000 <io+0x0>
 748:	0047c783          	lbu	a5,4(a5)
 74c:	0017f793          	andi	a5,a5,1
 750:	fe0798e3          	bnez	a5,740 <putdx+0x22c>
 754:	80000797          	auipc	a5,0x80000
 758:	8ac78793          	addi	a5,a5,-1876 # 80000000 <io+0x0>
 75c:	00d00513          	li	a0,13
 760:	00a782a3          	sb	a0,5(a5)
 764:	f81ff06f          	j	6e4 <putdx+0x1d0>

00000768 <putx>:
 768:	00000593          	li	a1,0
 76c:	da9ff06f          	j	514 <putdx>

00000770 <putd>:
 770:	00100593          	li	a1,1
 774:	da1ff06f          	j	514 <putdx>

00000778 <printf>:
 778:	fdc10113          	addi	sp,sp,-36
 77c:	02f12023          	sw	a5,32(sp)
 780:	00112623          	sw	ra,12(sp)
 784:	00812423          	sw	s0,8(sp)
 788:	00912223          	sw	s1,4(sp)
 78c:	00b12823          	sw	a1,16(sp)
 790:	00c12a23          	sw	a2,20(sp)
 794:	00d12c23          	sw	a3,24(sp)
 798:	00e12e23          	sw	a4,28(sp)
 79c:	00054683          	lbu	a3,0(a0)
 7a0:	01010793          	addi	a5,sp,16
 7a4:	00f12023          	sw	a5,0(sp)
 7a8:	06068263          	beqz	a3,80c <printf+0x94>
 7ac:	00050413          	mv	s0,a0
 7b0:	02500713          	li	a4,37
 7b4:	00140493          	addi	s1,s0,1
 7b8:	08e69a63          	bne	a3,a4,84c <printf+0xd4>
 7bc:	00144683          	lbu	a3,1(s0)
 7c0:	07300793          	li	a5,115
 7c4:	00240413          	addi	s0,s0,2
 7c8:	10f68263          	beq	a3,a5,8cc <printf+0x154>
 7cc:	07800793          	li	a5,120
 7d0:	10f68c63          	beq	a3,a5,8e8 <printf+0x170>
 7d4:	06400793          	li	a5,100
 7d8:	0cf68a63          	beq	a3,a5,8ac <printf+0x134>
 7dc:	00a00793          	li	a5,10
 7e0:	04f68263          	beq	a3,a5,824 <printf+0xac>
 7e4:	80000797          	auipc	a5,0x80000
 7e8:	81c78793          	addi	a5,a5,-2020 # 80000000 <io+0x0>
 7ec:	0047c783          	lbu	a5,4(a5)
 7f0:	0017f793          	andi	a5,a5,1
 7f4:	fe0798e3          	bnez	a5,7e4 <printf+0x6c>
 7f8:	80000797          	auipc	a5,0x80000
 7fc:	80878793          	addi	a5,a5,-2040 # 80000000 <io+0x0>
 800:	00d782a3          	sb	a3,5(a5)
 804:	0014c683          	lbu	a3,1(s1)
 808:	fa0696e3          	bnez	a3,7b4 <printf+0x3c>
 80c:	00c12083          	lw	ra,12(sp)
 810:	00812403          	lw	s0,8(sp)
 814:	00412483          	lw	s1,4(sp)
 818:	00000513          	li	a0,0
 81c:	02410113          	addi	sp,sp,36
 820:	00008067          	ret
 824:	7ffff797          	auipc	a5,0x7ffff
 828:	7dc78793          	addi	a5,a5,2012 # 80000000 <io>
 82c:	0047c783          	lbu	a5,4(a5)
 830:	0017f793          	andi	a5,a5,1
 834:	fe0798e3          	bnez	a5,824 <printf+0xac>
 838:	7ffff797          	auipc	a5,0x7ffff
 83c:	7c878793          	addi	a5,a5,1992 # 80000000 <io>
 840:	00d00613          	li	a2,13
 844:	00c782a3          	sb	a2,5(a5)
 848:	f9dff06f          	j	7e4 <printf+0x6c>
 84c:	00a00793          	li	a5,10
 850:	02f68a63          	beq	a3,a5,884 <printf+0x10c>
 854:	7ffff797          	auipc	a5,0x7ffff
 858:	7ac78793          	addi	a5,a5,1964 # 80000000 <io>
 85c:	0047c783          	lbu	a5,4(a5)
 860:	0017f793          	andi	a5,a5,1
 864:	fe0798e3          	bnez	a5,854 <printf+0xdc>
 868:	7ffff797          	auipc	a5,0x7ffff
 86c:	00048613          	mv	a2,s1
 870:	79878793          	addi	a5,a5,1944 # 80000000 <io>
 874:	00040493          	mv	s1,s0
 878:	00d782a3          	sb	a3,5(a5)
 87c:	00060413          	mv	s0,a2
 880:	f85ff06f          	j	804 <printf+0x8c>
 884:	7ffff797          	auipc	a5,0x7ffff
 888:	77c78793          	addi	a5,a5,1916 # 80000000 <io>
 88c:	0047c783          	lbu	a5,4(a5)
 890:	0017f793          	andi	a5,a5,1
 894:	fe0798e3          	bnez	a5,884 <printf+0x10c>
 898:	7ffff797          	auipc	a5,0x7ffff
 89c:	76878793          	addi	a5,a5,1896 # 80000000 <io>
 8a0:	00d00613          	li	a2,13
 8a4:	00c782a3          	sb	a2,5(a5)
 8a8:	fadff06f          	j	854 <printf+0xdc>
 8ac:	00012783          	lw	a5,0(sp)
 8b0:	00100593          	li	a1,1
 8b4:	0007a503          	lw	a0,0(a5)
 8b8:	00478793          	addi	a5,a5,4
 8bc:	00f12023          	sw	a5,0(sp)
 8c0:	c55ff0ef          	jal	ra,514 <putdx>
 8c4:	02500713          	li	a4,37
 8c8:	f3dff06f          	j	804 <printf+0x8c>
 8cc:	00012783          	lw	a5,0(sp)
 8d0:	0007a503          	lw	a0,0(a5)
 8d4:	00478793          	addi	a5,a5,4
 8d8:	00f12023          	sw	a5,0(sp)
 8dc:	b5dff0ef          	jal	ra,438 <putstr>
 8e0:	02500713          	li	a4,37
 8e4:	f21ff06f          	j	804 <printf+0x8c>
 8e8:	00012783          	lw	a5,0(sp)
 8ec:	00000593          	li	a1,0
 8f0:	fc5ff06f          	j	8b4 <printf+0x13c>

000008f4 <strncmp>:
 8f4:	00100793          	li	a5,1
 8f8:	00054683          	lbu	a3,0(a0)
 8fc:	0005c303          	lbu	t1,0(a1)
 900:	00050713          	mv	a4,a0
 904:	00f61e63          	bne	a2,a5,920 <strncmp+0x2c>
 908:	0300006f          	j	938 <strncmp+0x44>
 90c:	02030663          	beqz	t1,938 <strncmp+0x44>
 910:	02669463          	bne	a3,t1,938 <strncmp+0x44>
 914:	00074683          	lbu	a3,0(a4)
 918:	0005c303          	lbu	t1,0(a1)
 91c:	00078e63          	beqz	a5,938 <strncmp+0x44>
 920:	00170713          	addi	a4,a4,1
 924:	fff74793          	not	a5,a4
 928:	00c787b3          	add	a5,a5,a2
 92c:	00158593          	addi	a1,a1,1
 930:	00f507b3          	add	a5,a0,a5
 934:	fc069ce3          	bnez	a3,90c <strncmp+0x18>
 938:	40668533          	sub	a0,a3,t1
 93c:	00008067          	ret

00000940 <strcmp>:
 940:	00054783          	lbu	a5,0(a0)
 944:	0005c703          	lbu	a4,0(a1)
 948:	00079c63          	bnez	a5,960 <strcmp+0x20>
 94c:	0200006f          	j	96c <strcmp+0x2c>
 950:	00e79e63          	bne	a5,a4,96c <strcmp+0x2c>
 954:	00054783          	lbu	a5,0(a0)
 958:	0005c703          	lbu	a4,0(a1)
 95c:	00078c63          	beqz	a5,974 <strcmp+0x34>
 960:	00150513          	addi	a0,a0,1
 964:	00158593          	addi	a1,a1,1
 968:	fe0714e3          	bnez	a4,950 <strcmp+0x10>
 96c:	40e78533          	sub	a0,a5,a4
 970:	00008067          	ret
 974:	00000793          	li	a5,0
 978:	40e78533          	sub	a0,a5,a4
 97c:	00008067          	ret

00000980 <strlen>:
 980:	00050793          	mv	a5,a0
 984:	00000513          	li	a0,0
 988:	00079663          	bnez	a5,994 <strlen+0x14>
 98c:	0180006f          	j	9a4 <strlen+0x24>
 990:	00150513          	addi	a0,a0,1
 994:	00178793          	addi	a5,a5,1
 998:	fff7c703          	lbu	a4,-1(a5)
 99c:	fe071ae3          	bnez	a4,990 <strlen+0x10>
 9a0:	00008067          	ret
 9a4:	00008067          	ret

000009a8 <memcpy>:
 9a8:	02060063          	beqz	a2,9c8 <memcpy+0x20>
 9ac:	00c50633          	add	a2,a0,a2
 9b0:	00050793          	mv	a5,a0
 9b4:	00158593          	addi	a1,a1,1
 9b8:	fff5c703          	lbu	a4,-1(a1)
 9bc:	00178793          	addi	a5,a5,1
 9c0:	fee78fa3          	sb	a4,-1(a5)
 9c4:	fef618e3          	bne	a2,a5,9b4 <memcpy+0xc>
 9c8:	00008067          	ret

000009cc <memset>:
 9cc:	0ff5f593          	andi	a1,a1,255
 9d0:	00c50733          	add	a4,a0,a2
 9d4:	00050793          	mv	a5,a0
 9d8:	00060863          	beqz	a2,9e8 <memset+0x1c>
 9dc:	00178793          	addi	a5,a5,1
 9e0:	feb78fa3          	sb	a1,-1(a5)
 9e4:	fef71ce3          	bne	a4,a5,9dc <memset+0x10>
 9e8:	00008067          	ret

000009ec <strtok>:
 9ec:	ff410113          	addi	sp,sp,-12
 9f0:	00812423          	sw	s0,8(sp)
 9f4:	00912223          	sw	s1,4(sp)
 9f8:	00a12023          	sw	a0,0(sp)
 9fc:	00058393          	mv	t2,a1
 a00:	02058063          	beqz	a1,a20 <strtok+0x34>
 a04:	00058793          	mv	a5,a1
 a08:	00000393          	li	t2,0
 a0c:	0080006f          	j	a14 <strtok+0x28>
 a10:	00138393          	addi	t2,t2,1
 a14:	00178793          	addi	a5,a5,1
 a18:	fff7c703          	lbu	a4,-1(a5)
 a1c:	fe071ae3          	bnez	a4,a10 <strtok+0x24>
 a20:	00012783          	lw	a5,0(sp)
 a24:	0a078463          	beqz	a5,acc <strtok+0xe0>
 a28:	00012283          	lw	t0,0(sp)
 a2c:	0002c683          	lbu	a3,0(t0)
 a30:	04068e63          	beqz	a3,a8c <strtok+0xa0>
 a34:	0005c403          	lbu	s0,0(a1)
 a38:	00728333          	add	t1,t0,t2
 a3c:	00100493          	li	s1,1
 a40:	00058513          	mv	a0,a1
 a44:	00028793          	mv	a5,t0
 a48:	00040613          	mv	a2,s0
 a4c:	02938663          	beq	t2,s1,a78 <strtok+0x8c>
 a50:	00178793          	addi	a5,a5,1
 a54:	fff7c713          	not	a4,a5
 a58:	00150513          	addi	a0,a0,1
 a5c:	00670733          	add	a4,a4,t1
 a60:	00060e63          	beqz	a2,a7c <strtok+0x90>
 a64:	00d61c63          	bne	a2,a3,a7c <strtok+0x90>
 a68:	0007c683          	lbu	a3,0(a5)
 a6c:	00054603          	lbu	a2,0(a0)
 a70:	00070463          	beqz	a4,a78 <strtok+0x8c>
 a74:	fc069ee3          	bnez	a3,a50 <strtok+0x64>
 a78:	02c68863          	beq	a3,a2,aa8 <strtok+0xbc>
 a7c:	00128293          	addi	t0,t0,1
 a80:	0002c683          	lbu	a3,0(t0)
 a84:	00130313          	addi	t1,t1,1
 a88:	fa069ce3          	bnez	a3,a40 <strtok+0x54>
 a8c:	00012503          	lw	a0,0(sp)
 a90:	00001797          	auipc	a5,0x1
 a94:	0607a223          	sw	zero,100(a5) # 1af4 <nxt.1117>
 a98:	00812403          	lw	s0,8(sp)
 a9c:	00412483          	lw	s1,4(sp)
 aa0:	00c10113          	addi	sp,sp,12
 aa4:	00008067          	ret
 aa8:	00028023          	sb	zero,0(t0)
 aac:	00812403          	lw	s0,8(sp)
 ab0:	00128713          	addi	a4,t0,1
 ab4:	00001797          	auipc	a5,0x1
 ab8:	04e7a023          	sw	a4,64(a5) # 1af4 <nxt.1117>
 abc:	00012503          	lw	a0,0(sp)
 ac0:	00412483          	lw	s1,4(sp)
 ac4:	00c10113          	addi	sp,sp,12
 ac8:	00008067          	ret
 acc:	00001797          	auipc	a5,0x1
 ad0:	0287a783          	lw	a5,40(a5) # 1af4 <nxt.1117>
 ad4:	00f12023          	sw	a5,0(sp)
 ad8:	f40798e3          	bnez	a5,a28 <strtok+0x3c>
 adc:	00000513          	li	a0,0
 ae0:	fb9ff06f          	j	a98 <strtok+0xac>

00000ae4 <atoi>:
 ae4:	00050793          	mv	a5,a0
 ae8:	00000293          	li	t0,0
 aec:	00000513          	li	a0,0
 af0:	02d00313          	li	t1,45
 af4:	00079a63          	bnez	a5,b08 <atoi+0x24>
 af8:	0440006f          	j	b3c <atoi+0x58>
 afc:	00178793          	addi	a5,a5,1
 b00:	00b70533          	add	a0,a4,a1
 b04:	02078663          	beqz	a5,b30 <atoi+0x4c>
 b08:	0007c683          	lbu	a3,0(a5)
 b0c:	00351713          	slli	a4,a0,0x3
 b10:	00151593          	slli	a1,a0,0x1
 b14:	fd068613          	addi	a2,a3,-48
 b18:	00e60733          	add	a4,a2,a4
 b1c:	00068a63          	beqz	a3,b30 <atoi+0x4c>
 b20:	fc669ee3          	bne	a3,t1,afc <atoi+0x18>
 b24:	00178793          	addi	a5,a5,1
 b28:	00100293          	li	t0,1
 b2c:	fc079ee3          	bnez	a5,b08 <atoi+0x24>
 b30:	00028463          	beqz	t0,b38 <atoi+0x54>
 b34:	40a00533          	neg	a0,a0
 b38:	00008067          	ret
 b3c:	00008067          	ret

00000b40 <xtoi>:
 b40:	00050713          	mv	a4,a0
 b44:	03900313          	li	t1,57
 b48:	00000513          	li	a0,0
 b4c:	00071e63          	bnez	a4,b68 <xtoi+0x28>
 b50:	0340006f          	j	b84 <xtoi+0x44>
 b54:	00c58533          	add	a0,a1,a2
 b58:	00f37463          	bleu	a5,t1,b60 <xtoi+0x20>
 b5c:	00c68533          	add	a0,a3,a2
 b60:	00170713          	addi	a4,a4,1
 b64:	00070e63          	beqz	a4,b80 <xtoi+0x40>
 b68:	00074783          	lbu	a5,0(a4)
 b6c:	00451613          	slli	a2,a0,0x4
 b70:	05f7f693          	andi	a3,a5,95
 b74:	fd078593          	addi	a1,a5,-48
 b78:	fc968693          	addi	a3,a3,-55
 b7c:	fc079ce3          	bnez	a5,b54 <xtoi+0x14>
 b80:	00008067          	ret
 b84:	00008067          	ret

00000b88 <mac>:
 b88:	857f                	0x857f
 b8a:	00c5                	addi	ra,ra,17
 b8c:	00008067          	ret

00000b90 <__umulsi3>:
 b90:	00050793          	mv	a5,a0
 b94:	00b57663          	bleu	a1,a0,ba0 <__umulsi3+0x10>
 b98:	00058793          	mv	a5,a1
 b9c:	00050593          	mv	a1,a0
 ba0:	00000513          	li	a0,0
 ba4:	02058063          	beqz	a1,bc4 <__umulsi3+0x34>
 ba8:	0015f713          	andi	a4,a1,1
 bac:	0015d593          	srli	a1,a1,0x1
 bb0:	00070463          	beqz	a4,bb8 <__umulsi3+0x28>
 bb4:	00f50533          	add	a0,a0,a5
 bb8:	00179793          	slli	a5,a5,0x1
 bbc:	fe0596e3          	bnez	a1,ba8 <__umulsi3+0x18>
 bc0:	00008067          	ret
 bc4:	00008067          	ret

00000bc8 <__mulsi3>:
 bc8:	00000613          	li	a2,0
 bcc:	00055663          	bgez	a0,bd8 <__mulsi3+0x10>
 bd0:	40a00533          	neg	a0,a0
 bd4:	00100613          	li	a2,1
 bd8:	00050793          	mv	a5,a0
 bdc:	0405c463          	bltz	a1,c24 <__mulsi3+0x5c>
 be0:	00058713          	mv	a4,a1
 be4:	00000313          	li	t1,0
 be8:	00b56863          	bltu	a0,a1,bf8 <__mulsi3+0x30>
 bec:	00050713          	mv	a4,a0
 bf0:	00000313          	li	t1,0
 bf4:	00058793          	mv	a5,a1
 bf8:	04078663          	beqz	a5,c44 <__mulsi3+0x7c>
 bfc:	00000513          	li	a0,0
 c00:	0017f693          	andi	a3,a5,1
 c04:	0017d793          	srli	a5,a5,0x1
 c08:	00068463          	beqz	a3,c10 <__mulsi3+0x48>
 c0c:	00e50533          	add	a0,a0,a4
 c10:	00171713          	slli	a4,a4,0x1
 c14:	fe0796e3          	bnez	a5,c00 <__mulsi3+0x38>
 c18:	00660463          	beq	a2,t1,c20 <__mulsi3+0x58>
 c1c:	40a00533          	neg	a0,a0
 c20:	00008067          	ret
 c24:	40b00733          	neg	a4,a1
 c28:	00e56a63          	bltu	a0,a4,c3c <__mulsi3+0x74>
 c2c:	00070793          	mv	a5,a4
 c30:	00100313          	li	t1,1
 c34:	00050713          	mv	a4,a0
 c38:	fc5ff06f          	j	bfc <__mulsi3+0x34>
 c3c:	00100313          	li	t1,1
 c40:	fa079ee3          	bnez	a5,bfc <__mulsi3+0x34>
 c44:	00000513          	li	a0,0
 c48:	fd1ff06f          	j	c18 <__mulsi3+0x50>

00000c4c <__udiv_umod_si3>:
 c4c:	00058463          	beqz	a1,c54 <__udiv_umod_si3+0x8>
 c50:	d90ff06f          	j	1e0 <__udiv_umod_si3.part.0>
 c54:	00000513          	li	a0,0
 c58:	00008067          	ret

00000c5c <__udivsi3>:
 c5c:	00058663          	beqz	a1,c68 <__udivsi3+0xc>
 c60:	00100613          	li	a2,1
 c64:	d7cff06f          	j	1e0 <__udiv_umod_si3.part.0>
 c68:	00000513          	li	a0,0
 c6c:	00008067          	ret

00000c70 <__umodsi3>:
 c70:	00058663          	beqz	a1,c7c <__umodsi3+0xc>
 c74:	00000613          	li	a2,0
 c78:	d68ff06f          	j	1e0 <__udiv_umod_si3.part.0>
 c7c:	00000513          	li	a0,0
 c80:	00008067          	ret

00000c84 <__div_mod_si3>:
 c84:	00058463          	beqz	a1,c8c <__div_mod_si3+0x8>
 c88:	dbcff06f          	j	244 <__div_mod_si3.part.1>
 c8c:	00000513          	li	a0,0
 c90:	00008067          	ret

00000c94 <__divsi3>:
 c94:	00058663          	beqz	a1,ca0 <__divsi3+0xc>
 c98:	00100613          	li	a2,1
 c9c:	da8ff06f          	j	244 <__div_mod_si3.part.1>
 ca0:	00000513          	li	a0,0
 ca4:	00008067          	ret

00000ca8 <__modsi3>:
 ca8:	00058663          	beqz	a1,cb4 <__modsi3+0xc>
 cac:	00000613          	li	a2,0
 cb0:	d94ff06f          	j	244 <__div_mod_si3.part.1>
 cb4:	00000513          	li	a0,0
 cb8:	00008067          	ret

00000cbc <usleep>:
 cbc:	fff50713          	addi	a4,a0,-1
 cc0:	02050a63          	beqz	a0,cf4 <usleep+0x38>
 cc4:	f8000613          	li	a2,-128
 cc8:	fff00693          	li	a3,-1
 ccc:	7ffff797          	auipc	a5,0x7ffff
 cd0:	33478793          	addi	a5,a5,820 # 80000000 <io>
 cd4:	00c781a3          	sb	a2,3(a5)
 cd8:	7ffff797          	auipc	a5,0x7ffff
 cdc:	32878793          	addi	a5,a5,808 # 80000000 <io>
 ce0:	0037c783          	lbu	a5,3(a5)
 ce4:	0ff7f793          	andi	a5,a5,255
 ce8:	fe0788e3          	beqz	a5,cd8 <usleep+0x1c>
 cec:	fff70713          	addi	a4,a4,-1
 cf0:	fcd71ee3          	bne	a4,a3,ccc <usleep+0x10>
 cf4:	00008067          	ret

00000cf8 <set_mtvec>:
 cf8:	30551073          	csrw	mtvec,a0
 cfc:	00008067          	ret

00000d00 <get_mtvec>:
 d00:	30502573          	csrr	a0,mtvec
 d04:	00008067          	ret

00000d08 <set_mepc>:
 d08:	34151073          	csrw	mepc,a0
 d0c:	00008067          	ret

00000d10 <get_mepc>:
 d10:	34102573          	csrr	a0,mepc
 d14:	00008067          	ret

00000d18 <set_mie>:
 d18:	30451073          	csrw	mie,a0
 d1c:	00008067          	ret

00000d20 <get_mie>:
 d20:	30402573          	csrr	a0,mie
 d24:	00008067          	ret

00000d28 <banner>:
 d28:	00001797          	auipc	a5,0x1
 d2c:	edc10113          	addi	sp,sp,-292
 d30:	c8078793          	addi	a5,a5,-896 # 19a8 <main+0xb98>
 d34:	12112023          	sw	ra,288(sp)
 d38:	10812e23          	sw	s0,284(sp)
 d3c:	10912c23          	sw	s1,280(sp)
 d40:	00810713          	addi	a4,sp,8
 d44:	10878393          	addi	t2,a5,264
 d48:	0007a283          	lw	t0,0(a5)
 d4c:	0047a303          	lw	t1,4(a5)
 d50:	0087a503          	lw	a0,8(a5)
 d54:	00c7a583          	lw	a1,12(a5)
 d58:	0107a603          	lw	a2,16(a5)
 d5c:	0147a683          	lw	a3,20(a5)
 d60:	00572023          	sw	t0,0(a4)
 d64:	00672223          	sw	t1,4(a4)
 d68:	00a72423          	sw	a0,8(a4)
 d6c:	00b72623          	sw	a1,12(a4)
 d70:	00c72823          	sw	a2,16(a4)
 d74:	00d72a23          	sw	a3,20(a4)
 d78:	01878793          	addi	a5,a5,24
 d7c:	01870713          	addi	a4,a4,24
 d80:	fc7794e3          	bne	a5,t2,d48 <banner+0x20>
 d84:	0007a683          	lw	a3,0(a5)
 d88:	0047c783          	lbu	a5,4(a5)
 d8c:	00a00513          	li	a0,10
 d90:	00d72023          	sw	a3,0(a4)
 d94:	00f70223          	sb	a5,4(a4)
 d98:	07600793          	li	a5,118
 d9c:	00f12223          	sw	a5,4(sp)
 da0:	d44ff0ef          	jal	ra,2e4 <putchar>
 da4:	00810793          	addi	a5,sp,8
 da8:	00f12023          	sw	a5,0(sp)
 dac:	00e00713          	li	a4,14
 db0:	02000413          	li	s0,32
 db4:	00012783          	lw	a5,0(sp)
 db8:	fff70493          	addi	s1,a4,-1
 dbc:	00278793          	addi	a5,a5,2
 dc0:	00f12023          	sw	a5,0(sp)
 dc4:	00070c63          	beqz	a4,ddc <banner+0xb4>
 dc8:	00040513          	mv	a0,s0
 dcc:	d18ff0ef          	jal	ra,2e4 <putchar>
 dd0:	fff48493          	addi	s1,s1,-1
 dd4:	fff00793          	li	a5,-1
 dd8:	fef498e3          	bne	s1,a5,dc8 <banner+0xa0>
 ddc:	00412783          	lw	a5,4(sp)
 de0:	00078e63          	beqz	a5,dfc <banner+0xd4>
 de4:	00012783          	lw	a5,0(sp)
 de8:	00412403          	lw	s0,4(sp)
 dec:	0017c703          	lbu	a4,1(a5)
 df0:	0027c783          	lbu	a5,2(a5)
 df4:	00f12223          	sw	a5,4(sp)
 df8:	fbdff06f          	j	db4 <banner+0x8c>
 dfc:	12012083          	lw	ra,288(sp)
 e00:	11c12403          	lw	s0,284(sp)
 e04:	11812483          	lw	s1,280(sp)
 e08:	12410113          	addi	sp,sp,292
 e0c:	00008067          	ret

Disassembly of section .text.startup:

00000e10 <main>:
     e10:	7ffff797          	auipc	a5,0x7ffff
     e14:	1f07c503          	lbu	a0,496(a5) # 80000000 <io>
     e18:	f8010113          	addi	sp,sp,-128
     e1c:	06112e23          	sw	ra,124(sp)
     e20:	06812c23          	sw	s0,120(sp)
     e24:	06912a23          	sw	s1,116(sp)
     e28:	a54ff0ef          	jal	ra,7c <board_name>
     e2c:	7ffff797          	auipc	a5,0x7ffff
     e30:	1d47c603          	lbu	a2,468(a5) # 80000000 <io>
     e34:	00050593          	mv	a1,a0
     e38:	00000517          	auipc	a0,0x0
     e3c:	7e850513          	addi	a0,a0,2024 # 1620 <main+0x810>
     e40:	939ff0ef          	jal	ra,778 <printf>
     e44:	00000617          	auipc	a2,0x0
     e48:	00000597          	auipc	a1,0x0
     e4c:	00001517          	auipc	a0,0x1
     e50:	7f060613          	addi	a2,a2,2032 # 1634 <main+0x824>
     e54:	7f458593          	addi	a1,a1,2036 # 163c <main+0x82c>
     e58:	81050513          	addi	a0,a0,-2032 # 165c <main+0x84c>
     e5c:	91dff0ef          	jal	ra,778 <printf>
     e60:	00001797          	auipc	a5,0x1
     e64:	c907a783          	lw	a5,-880(a5) # 1af0 <threads>
     e68:	00000413          	li	s0,0
     e6c:	0c078663          	beqz	a5,f38 <main+0x128>
     e70:	7ffff717          	auipc	a4,0x7ffff
     e74:	7ffff797          	auipc	a5,0x7ffff
     e78:	19070713          	addi	a4,a4,400 # 80000000 <io>
     e7c:	18c78793          	addi	a5,a5,396 # 80000000 <io>
     e80:	00174483          	lbu	s1,1(a4)
     e84:	0027c783          	lbu	a5,2(a5)
     e88:	00000717          	auipc	a4,0x0
     e8c:	00e12423          	sw	a4,8(sp)
     e90:	0ff7f793          	andi	a5,a5,255
     e94:	00f12223          	sw	a5,4(sp)
     e98:	9d4ff0ef          	jal	ra,6c <check4rv32i>
     e9c:	00001797          	auipc	a5,0x1
     ea0:	00812703          	lw	a4,8(sp)
     ea4:	c547a683          	lw	a3,-940(a5) # 1af0 <threads>
     ea8:	0ff4f493          	andi	s1,s1,255
     eac:	01000613          	li	a2,16
     eb0:	01000593          	li	a1,16
     eb4:	00000797          	auipc	a5,0x0
     eb8:	78870713          	addi	a4,a4,1928 # 1610 <main+0x800>
     ebc:	00051663          	bnez	a0,ec8 <main+0xb8>
     ec0:	00000717          	auipc	a4,0x0
     ec4:	77870713          	addi	a4,a4,1912 # 1638 <main+0x828>
     ec8:	00100313          	li	t1,1
     ecc:	3e800513          	li	a0,1000
     ed0:	76078793          	addi	a5,a5,1888 # 1614 <main+0x804>
     ed4:	00d34663          	blt	t1,a3,ee0 <main+0xd0>
     ed8:	00001797          	auipc	a5,0x1
     edc:	bdc78793          	addi	a5,a5,-1060 # 1ab4 <main+0xca4>
     ee0:	00f12623          	sw	a5,12(sp)
     ee4:	00e12423          	sw	a4,8(sp)
     ee8:	ca1ff0ef          	jal	ra,b88 <mac>
     eec:	00000317          	auipc	t1,0x0
     ef0:	4e800293          	li	t0,1256
     ef4:	00040593          	mv	a1,s0
     ef8:	00c12783          	lw	a5,12(sp)
     efc:	00812703          	lw	a4,8(sp)
     f00:	00412683          	lw	a3,4(sp)
     f04:	00048613          	mv	a2,s1
     f08:	00140413          	addi	s0,s0,1
     f0c:	72c30313          	addi	t1,t1,1836 # 1618 <main+0x808>
     f10:	00550663          	beq	a0,t0,f1c <main+0x10c>
     f14:	00001317          	auipc	t1,0x1
     f18:	ba030313          	addi	t1,t1,-1120 # 1ab4 <main+0xca4>
     f1c:	00000517          	auipc	a0,0x0
     f20:	00612023          	sw	t1,0(sp)
     f24:	79850513          	addi	a0,a0,1944 # 16b4 <main+0x8a4>
     f28:	851ff0ef          	jal	ra,778 <printf>
     f2c:	00001797          	auipc	a5,0x1
     f30:	bc47a783          	lw	a5,-1084(a5) # 1af0 <threads>
     f34:	f2879ee3          	bne	a5,s0,e70 <main+0x60>
     f38:	00001797          	auipc	a5,0x1
     f3c:	ba07ac23          	sw	zero,-1096(a5) # 1af0 <threads>
     f40:	7ffff797          	auipc	a5,0x7ffff
     f44:	0c078793          	addi	a5,a5,192 # 80000000 <io>
     f48:	0067d583          	lhu	a1,6(a5)
     f4c:	00000517          	auipc	a0,0x0
     f50:	72450513          	addi	a0,a0,1828 # 1670 <main+0x860>
     f54:	825ff0ef          	jal	ra,778 <printf>
     f58:	7ffff717          	auipc	a4,0x7ffff
     f5c:	7ffff797          	auipc	a5,0x7ffff
     f60:	0a870713          	addi	a4,a4,168 # 80000000 <io>
     f64:	0a478793          	addi	a5,a5,164 # 80000000 <io>
     f68:	00174303          	lbu	t1,1(a4)
     f6c:	0027c703          	lbu	a4,2(a5)
     f70:	7ffff617          	auipc	a2,0x7ffff
     f74:	00531693          	slli	a3,t1,0x5
     f78:	00271793          	slli	a5,a4,0x2
     f7c:	406686b3          	sub	a3,a3,t1
     f80:	00e787b3          	add	a5,a5,a4
     f84:	00669513          	slli	a0,a3,0x6
     f88:	00379793          	slli	a5,a5,0x3
     f8c:	40e787b3          	sub	a5,a5,a4
     f90:	09060613          	addi	a2,a2,144 # 80000000 <io>
     f94:	40d50533          	sub	a0,a0,a3
     f98:	00c62583          	lw	a1,12(a2)
     f9c:	00351513          	slli	a0,a0,0x3
     fa0:	00479793          	slli	a5,a5,0x4
     fa4:	00650533          	add	a0,a0,t1
     fa8:	00e787b3          	add	a5,a5,a4
     fac:	7ffff697          	auipc	a3,0x7ffff
     fb0:	05468693          	addi	a3,a3,84 # 80000000 <io>
     fb4:	00479793          	slli	a5,a5,0x4
     fb8:	00651513          	slli	a0,a0,0x6
     fbc:	00c6a403          	lw	s0,12(a3)
     fc0:	00f50533          	add	a0,a0,a5
     fc4:	00158593          	addi	a1,a1,1
     fc8:	c95ff0ef          	jal	ra,c5c <__udivsi3>
     fcc:	00050593          	mv	a1,a0
     fd0:	00000517          	auipc	a0,0x0
     fd4:	00040613          	mv	a2,s0
     fd8:	6bc50513          	addi	a0,a0,1724 # 168c <main+0x87c>
     fdc:	f9cff0ef          	jal	ra,778 <printf>
     fe0:	fffff517          	auipc	a0,0xfffff
     fe4:	15850513          	addi	a0,a0,344 # 138 <irq_handler>
     fe8:	d11ff0ef          	jal	ra,cf8 <set_mtvec>
     fec:	00000513          	li	a0,0
     ff0:	d11ff0ef          	jal	ra,d00 <get_mtvec>
     ff4:	00a12823          	sw	a0,16(sp)
     ff8:	3a050a63          	beqz	a0,13ac <main+0x59c>
     ffc:	01012583          	lw	a1,16(sp)
    1000:	00000517          	auipc	a0,0x0
    1004:	6e450513          	addi	a0,a0,1764 # 16e4 <main+0x8d4>
    1008:	f70ff0ef          	jal	ra,778 <printf>
    100c:	00100513          	li	a0,1
    1010:	d09ff0ef          	jal	ra,d18 <set_mie>
    1014:	00000517          	auipc	a0,0x0
    1018:	6fc50513          	addi	a0,a0,1788 # 1710 <main+0x900>
    101c:	f5cff0ef          	jal	ra,778 <printf>
    1020:	00001517          	auipc	a0,0x1
    1024:	7ffff797          	auipc	a5,0x7ffff
    1028:	fdc78793          	addi	a5,a5,-36 # 80000000 <io>
    102c:	f8000713          	li	a4,-128
    1030:	80c50513          	addi	a0,a0,-2036 # 182c <main+0xa1c>
    1034:	00e781a3          	sb	a4,3(a5)
    1038:	f40ff0ef          	jal	ra,778 <printf>
    103c:	00000517          	auipc	a0,0x0
    1040:	71450513          	addi	a0,a0,1812 # 1750 <main+0x940>
    1044:	f34ff0ef          	jal	ra,778 <printf>
    1048:	00000517          	auipc	a0,0x0
    104c:	72050513          	addi	a0,a0,1824 # 1768 <main+0x958>
    1050:	f28ff0ef          	jal	ra,778 <printf>
    1054:	04000613          	li	a2,64
    1058:	00000593          	li	a1,0
    105c:	03410513          	addi	a0,sp,52
    1060:	96dff0ef          	jal	ra,9cc <memset>
    1064:	01012783          	lw	a5,16(sp)
    1068:	0e078c63          	beqz	a5,1160 <main+0x350>
    106c:	04000593          	li	a1,64
    1070:	03410513          	addi	a0,sp,52
    1074:	accff0ef          	jal	ra,340 <gets>
    1078:	01410493          	addi	s1,sp,20
    107c:	00100413          	li	s0,1
    1080:	0200006f          	j	10a0 <main+0x290>
    1084:	969ff0ef          	jal	ra,9ec <strtok>
    1088:	00a4a023          	sw	a0,0(s1)
    108c:	00800793          	li	a5,8
    1090:	02050e63          	beqz	a0,10cc <main+0x2bc>
    1094:	02f40c63          	beq	s0,a5,10cc <main+0x2bc>
    1098:	00140413          	addi	s0,s0,1
    109c:	00448493          	addi	s1,s1,4
    10a0:	00000597          	auipc	a1,0x0
    10a4:	00100793          	li	a5,1
    10a8:	6cc58593          	addi	a1,a1,1740 # 176c <main+0x95c>
    10ac:	00000513          	li	a0,0
    10b0:	fcf41ae3          	bne	s0,a5,1084 <main+0x274>
    10b4:	00000597          	auipc	a1,0x0
    10b8:	6b858593          	addi	a1,a1,1720 # 176c <main+0x95c>
    10bc:	03410513          	addi	a0,sp,52
    10c0:	92dff0ef          	jal	ra,9ec <strtok>
    10c4:	00a4a023          	sw	a0,0(s1)
    10c8:	fc0518e3          	bnez	a0,1098 <main+0x288>
    10cc:	01412403          	lw	s0,20(sp)
    10d0:	f6040ce3          	beqz	s0,1048 <main+0x238>
    10d4:	00000597          	auipc	a1,0x0
    10d8:	69c58593          	addi	a1,a1,1692 # 1770 <main+0x960>
    10dc:	00040513          	mv	a0,s0
    10e0:	861ff0ef          	jal	ra,940 <strcmp>
    10e4:	10050663          	beqz	a0,11f0 <main+0x3e0>
    10e8:	00000597          	auipc	a1,0x0
    10ec:	69858593          	addi	a1,a1,1688 # 1780 <main+0x970>
    10f0:	00040513          	mv	a0,s0
    10f4:	84dff0ef          	jal	ra,940 <strcmp>
    10f8:	20050063          	beqz	a0,12f8 <main+0x4e8>
    10fc:	00000597          	auipc	a1,0x0
    1100:	6b058593          	addi	a1,a1,1712 # 17ac <main+0x99c>
    1104:	00040513          	mv	a0,s0
    1108:	839ff0ef          	jal	ra,940 <strcmp>
    110c:	0e050a63          	beqz	a0,1200 <main+0x3f0>
    1110:	00000597          	auipc	a1,0x0
    1114:	6b058593          	addi	a1,a1,1712 # 17c0 <main+0x9b0>
    1118:	00040513          	mv	a0,s0
    111c:	825ff0ef          	jal	ra,940 <strcmp>
    1120:	18051863          	bnez	a0,12b0 <main+0x4a0>
    1124:	01812503          	lw	a0,24(sp)
    1128:	00050e63          	beqz	a0,1144 <main+0x334>
    112c:	a15ff0ef          	jal	ra,b40 <xtoi>
    1130:	01051513          	slli	a0,a0,0x10
    1134:	7ffff797          	auipc	a5,0x7ffff
    1138:	01055513          	srli	a0,a0,0x10
    113c:	ecc78793          	addi	a5,a5,-308 # 80000000 <io>
    1140:	00a79423          	sh	a0,8(a5)
    1144:	7ffff797          	auipc	a5,0x7ffff
    1148:	ebc78793          	addi	a5,a5,-324 # 80000000 <io>
    114c:	0087d583          	lhu	a1,8(a5)
    1150:	00000517          	auipc	a0,0x0
    1154:	67450513          	addi	a0,a0,1652 # 17c4 <main+0x9b4>
    1158:	e20ff0ef          	jal	ra,778 <printf>
    115c:	eedff06f          	j	1048 <main+0x238>
    1160:	000f4637          	lui	a2,0xf4
    1164:	f8000593          	li	a1,-128
    1168:	23f60613          	addi	a2,a2,575 # f423f <_global+0xf1f56>
    116c:	0100006f          	j	117c <main+0x36c>
    1170:	0047c783          	lbu	a5,4(a5)
    1174:	0027f793          	andi	a5,a5,2
    1178:	ee079ae3          	bnez	a5,106c <main+0x25c>
    117c:	7ffff717          	auipc	a4,0x7ffff
    1180:	e8470713          	addi	a4,a4,-380 # 80000000 <io>
    1184:	00374703          	lbu	a4,3(a4)
    1188:	7ffff797          	auipc	a5,0x7ffff
    118c:	7ffff697          	auipc	a3,0x7ffff
    1190:	01871713          	slli	a4,a4,0x18
    1194:	41875713          	srai	a4,a4,0x18
    1198:	e7878793          	addi	a5,a5,-392 # 80000000 <io>
    119c:	e7468693          	addi	a3,a3,-396 # 80000000 <io>
    11a0:	fc0758e3          	bgez	a4,1170 <main+0x360>
    11a4:	7ffff717          	auipc	a4,0x7ffff
    11a8:	e5c70513          	addi	a0,a4,-420 # 80000000 <io>
    11ac:	00001717          	auipc	a4,0x1
    11b0:	94072303          	lw	t1,-1728(a4) # 1aec <utimers>
    11b4:	00001297          	auipc	t0,0x1
    11b8:	7ffff717          	auipc	a4,0x7ffff
    11bc:	fff30393          	addi	t2,t1,-1
    11c0:	9272ac23          	sw	t2,-1736(t0) # 1aec <utimers>
    11c4:	e4870713          	addi	a4,a4,-440 # 80000000 <io>
    11c8:	02031063          	bnez	t1,11e8 <main+0x3d8>
    11cc:	00855503          	lhu	a0,8(a0)
    11d0:	00150513          	addi	a0,a0,1
    11d4:	01051513          	slli	a0,a0,0x10
    11d8:	01055513          	srli	a0,a0,0x10
    11dc:	00a71423          	sh	a0,8(a4)
    11e0:	00001717          	auipc	a4,0x1
    11e4:	90c72623          	sw	a2,-1780(a4) # 1aec <utimers>
    11e8:	00b681a3          	sb	a1,3(a3)
    11ec:	f85ff06f          	j	1170 <main+0x360>
    11f0:	00000517          	auipc	a0,0x0
    11f4:	58850513          	addi	a0,a0,1416 # 1778 <main+0x968>
    11f8:	d80ff0ef          	jal	ra,778 <printf>
    11fc:	e4dff06f          	j	1048 <main+0x238>
    1200:	01812783          	lw	a5,24(sp)
    1204:	00f12423          	sw	a5,8(sp)
    1208:	00078863          	beqz	a5,1218 <main+0x408>
    120c:	00078513          	mv	a0,a5
    1210:	931ff0ef          	jal	ra,b40 <xtoi>
    1214:	00a12423          	sw	a0,8(sp)
    1218:	00812783          	lw	a5,8(sp)
    121c:	01078493          	addi	s1,a5,16
    1220:	10078793          	addi	a5,a5,256
    1224:	00f12623          	sw	a5,12(sp)
    1228:	00812783          	lw	a5,8(sp)
    122c:	00000517          	auipc	a0,0x0
    1230:	58850513          	addi	a0,a0,1416 # 17b4 <main+0x9a4>
    1234:	00078593          	mv	a1,a5
    1238:	00078413          	mv	s0,a5
    123c:	d3cff0ef          	jal	ra,778 <printf>
    1240:	00812783          	lw	a5,8(sp)
    1244:	0007c583          	lbu	a1,0(a5)
    1248:	00000517          	auipc	a0,0x0
    124c:	00178793          	addi	a5,a5,1
    1250:	57450513          	addi	a0,a0,1396 # 17bc <main+0x9ac>
    1254:	00f12223          	sw	a5,4(sp)
    1258:	d20ff0ef          	jal	ra,778 <printf>
    125c:	00412783          	lw	a5,4(sp)
    1260:	fef492e3          	bne	s1,a5,1244 <main+0x434>
    1264:	00044503          	lbu	a0,0(s0)
    1268:	05e00713          	li	a4,94
    126c:	00140413          	addi	s0,s0,1
    1270:	fe050793          	addi	a5,a0,-32
    1274:	0ff7f793          	andi	a5,a5,255
    1278:	00f77463          	bleu	a5,a4,1280 <main+0x470>
    127c:	02e00513          	li	a0,46
    1280:	864ff0ef          	jal	ra,2e4 <putchar>
    1284:	fe8490e3          	bne	s1,s0,1264 <main+0x454>
    1288:	00812783          	lw	a5,8(sp)
    128c:	00a00513          	li	a0,10
    1290:	01048493          	addi	s1,s1,16
    1294:	01078793          	addi	a5,a5,16
    1298:	00078413          	mv	s0,a5
    129c:	00f12423          	sw	a5,8(sp)
    12a0:	844ff0ef          	jal	ra,2e4 <putchar>
    12a4:	00c12703          	lw	a4,12(sp)
    12a8:	f88710e3          	bne	a4,s0,1228 <main+0x418>
    12ac:	d9dff06f          	j	1048 <main+0x238>
    12b0:	00000597          	auipc	a1,0x0
    12b4:	52058593          	addi	a1,a1,1312 # 17d0 <main+0x9c0>
    12b8:	00040513          	mv	a0,s0
    12bc:	e84ff0ef          	jal	ra,940 <strcmp>
    12c0:	08051e63          	bnez	a0,135c <main+0x54c>
    12c4:	01812503          	lw	a0,24(sp)
    12c8:	00050a63          	beqz	a0,12dc <main+0x4cc>
    12cc:	819ff0ef          	jal	ra,ae4 <atoi>
    12d0:	7ffff797          	auipc	a5,0x7ffff
    12d4:	d3078793          	addi	a5,a5,-720 # 80000000 <io>
    12d8:	00a7a623          	sw	a0,12(a5)
    12dc:	7ffff797          	auipc	a5,0x7ffff
    12e0:	d2478793          	addi	a5,a5,-732 # 80000000 <io>
    12e4:	00c7a583          	lw	a1,12(a5)
    12e8:	00000517          	auipc	a0,0x0
    12ec:	4f050513          	addi	a0,a0,1264 # 17d8 <main+0x9c8>
    12f0:	c88ff0ef          	jal	ra,778 <printf>
    12f4:	d55ff06f          	j	1048 <main+0x238>
    12f8:	00000517          	auipc	a0,0x0
    12fc:	49050513          	addi	a0,a0,1168 # 1788 <main+0x978>
    1300:	000f4437          	lui	s0,0xf4
    1304:	c74ff0ef          	jal	ra,778 <printf>
    1308:	24040513          	addi	a0,s0,576 # f4240 <_global+0xf1f57>
    130c:	9b1ff0ef          	jal	ra,cbc <usleep>
    1310:	02e00513          	li	a0,46
    1314:	fd1fe0ef          	jal	ra,2e4 <putchar>
    1318:	24040513          	addi	a0,s0,576
    131c:	9a1ff0ef          	jal	ra,cbc <usleep>
    1320:	02e00513          	li	a0,46
    1324:	fc1fe0ef          	jal	ra,2e4 <putchar>
    1328:	24040513          	addi	a0,s0,576
    132c:	991ff0ef          	jal	ra,cbc <usleep>
    1330:	02e00513          	li	a0,46
    1334:	fb1fe0ef          	jal	ra,2e4 <putchar>
    1338:	00000517          	auipc	a0,0x0
    133c:	46c50513          	addi	a0,a0,1132 # 17a4 <main+0x994>
    1340:	c38ff0ef          	jal	ra,778 <printf>
    1344:	07c12083          	lw	ra,124(sp)
    1348:	07812403          	lw	s0,120(sp)
    134c:	07412483          	lw	s1,116(sp)
    1350:	00000513          	li	a0,0
    1354:	08010113          	addi	sp,sp,128
    1358:	00008067          	ret
    135c:	00000597          	auipc	a1,0x0
    1360:	48858593          	addi	a1,a1,1160 # 17e4 <main+0x9d4>
    1364:	00040513          	mv	a0,s0
    1368:	dd8ff0ef          	jal	ra,940 <strcmp>
    136c:	04051863          	bnez	a0,13bc <main+0x5ac>
    1370:	01812503          	lw	a0,24(sp)
    1374:	00050e63          	beqz	a0,1390 <main+0x580>
    1378:	fc8ff0ef          	jal	ra,b40 <xtoi>
    137c:	01051513          	slli	a0,a0,0x10
    1380:	7ffff797          	auipc	a5,0x7ffff
    1384:	01055513          	srli	a0,a0,0x10
    1388:	c8078793          	addi	a5,a5,-896 # 80000000 <io>
    138c:	00a79523          	sh	a0,10(a5)
    1390:	7ffff797          	auipc	a5,0x7ffff
    1394:	c7078793          	addi	a5,a5,-912 # 80000000 <io>
    1398:	00a7d583          	lhu	a1,10(a5)
    139c:	00000517          	auipc	a0,0x0
    13a0:	45050513          	addi	a0,a0,1104 # 17ec <main+0x9dc>
    13a4:	bd4ff0ef          	jal	ra,778 <printf>
    13a8:	ca1ff06f          	j	1048 <main+0x238>
    13ac:	00000517          	auipc	a0,0x0
    13b0:	38050513          	addi	a0,a0,896 # 172c <main+0x91c>
    13b4:	bc4ff0ef          	jal	ra,778 <printf>
    13b8:	c69ff06f          	j	1020 <main+0x210>
    13bc:	00000597          	auipc	a1,0x0
    13c0:	43c58593          	addi	a1,a1,1084 # 17f8 <main+0x9e8>
    13c4:	00040513          	mv	a0,s0
    13c8:	d78ff0ef          	jal	ra,940 <strcmp>
    13cc:	02051c63          	bnez	a0,1404 <main+0x5f4>
    13d0:	01812503          	lw	a0,24(sp)
    13d4:	f10ff0ef          	jal	ra,ae4 <atoi>
    13d8:	00050413          	mv	s0,a0
    13dc:	01c12503          	lw	a0,28(sp)
    13e0:	f04ff0ef          	jal	ra,ae4 <atoi>
    13e4:	00050593          	mv	a1,a0
    13e8:	00040513          	mv	a0,s0
    13ec:	fdcff0ef          	jal	ra,bc8 <__mulsi3>
    13f0:	00050593          	mv	a1,a0
    13f4:	00000517          	auipc	a0,0x0
    13f8:	40850513          	addi	a0,a0,1032 # 17fc <main+0x9ec>
    13fc:	b7cff0ef          	jal	ra,778 <printf>
    1400:	c49ff06f          	j	1048 <main+0x238>
    1404:	00000597          	auipc	a1,0x0
    1408:	40458593          	addi	a1,a1,1028 # 1808 <main+0x9f8>
    140c:	00040513          	mv	a0,s0
    1410:	d30ff0ef          	jal	ra,940 <strcmp>
    1414:	06050263          	beqz	a0,1478 <main+0x668>
    1418:	00000597          	auipc	a1,0x0
    141c:	40858593          	addi	a1,a1,1032 # 1820 <main+0xa10>
    1420:	00040513          	mv	a0,s0
    1424:	d1cff0ef          	jal	ra,940 <strcmp>
    1428:	08051e63          	bnez	a0,14c4 <main+0x6b4>
    142c:	01812503          	lw	a0,24(sp)
    1430:	eb4ff0ef          	jal	ra,ae4 <atoi>
    1434:	00050413          	mv	s0,a0
    1438:	01c12503          	lw	a0,28(sp)
    143c:	ea8ff0ef          	jal	ra,ae4 <atoi>
    1440:	00050493          	mv	s1,a0
    1444:	02012503          	lw	a0,32(sp)
    1448:	e9cff0ef          	jal	ra,ae4 <atoi>
    144c:	01051613          	slli	a2,a0,0x10
    1450:	01049593          	slli	a1,s1,0x10
    1454:	41065613          	srai	a2,a2,0x10
    1458:	4105d593          	srai	a1,a1,0x10
    145c:	00040513          	mv	a0,s0
    1460:	f28ff0ef          	jal	ra,b88 <mac>
    1464:	00050593          	mv	a1,a0
    1468:	00000517          	auipc	a0,0x0
    146c:	3bc50513          	addi	a0,a0,956 # 1824 <main+0xa14>
    1470:	b08ff0ef          	jal	ra,778 <printf>
    1474:	bd5ff06f          	j	1048 <main+0x238>
    1478:	01812503          	lw	a0,24(sp)
    147c:	e68ff0ef          	jal	ra,ae4 <atoi>
    1480:	00050413          	mv	s0,a0
    1484:	01c12503          	lw	a0,28(sp)
    1488:	e5cff0ef          	jal	ra,ae4 <atoi>
    148c:	00050493          	mv	s1,a0
    1490:	00050593          	mv	a1,a0
    1494:	00040513          	mv	a0,s0
    1498:	811ff0ef          	jal	ra,ca8 <__modsi3>
    149c:	00a12223          	sw	a0,4(sp)
    14a0:	00048593          	mv	a1,s1
    14a4:	00040513          	mv	a0,s0
    14a8:	fecff0ef          	jal	ra,c94 <__divsi3>
    14ac:	00412603          	lw	a2,4(sp)
    14b0:	00050593          	mv	a1,a0
    14b4:	00000517          	auipc	a0,0x0
    14b8:	35850513          	addi	a0,a0,856 # 180c <main+0x9fc>
    14bc:	abcff0ef          	jal	ra,778 <printf>
    14c0:	b89ff06f          	j	1048 <main+0x238>
    14c4:	00000597          	auipc	a1,0x0
    14c8:	36c58593          	addi	a1,a1,876 # 1830 <main+0xa20>
    14cc:	00040513          	mv	a0,s0
    14d0:	c70ff0ef          	jal	ra,940 <strcmp>
    14d4:	02050063          	beqz	a0,14f4 <main+0x6e4>
    14d8:	00044783          	lbu	a5,0(s0)
    14dc:	b60786e3          	beqz	a5,1048 <main+0x238>
    14e0:	00000517          	auipc	a0,0x0
    14e4:	00040593          	mv	a1,s0
    14e8:	36c50513          	addi	a0,a0,876 # 184c <main+0xa3c>
    14ec:	a8cff0ef          	jal	ra,778 <printf>
    14f0:	b59ff06f          	j	1048 <main+0x238>
    14f4:	01812503          	lw	a0,24(sp)
    14f8:	e48ff0ef          	jal	ra,b40 <xtoi>
    14fc:	00050593          	mv	a1,a0
    1500:	00000517          	auipc	a0,0x0
    1504:	4015d613          	srai	a2,a1,0x1
    1508:	33850513          	addi	a0,a0,824 # 1838 <main+0xa28>
    150c:	a6cff0ef          	jal	ra,778 <printf>
    1510:	b39ff06f          	j	1048 <main+0x238>
