
darksocv.o:     file format elf32-littleriscv


Disassembly of section .text:

00000000 <_start>:
   0:	ff010113          	addi	sp,sp,-16
   4:	800007b7          	lui	a5,0x80000
   8:	00112623          	sw	ra,12(sp)
   c:	00000693          	li	a3,0
  10:	00078793          	mv	a5,a5
  14:	0037c703          	lbu	a4,3(a5) # 80000003 <io+0x3>
  18:	0ff77713          	andi	a4,a4,255
  1c:	00071e63          	bnez	a4,38 <_start+0x38>
  20:	00001537          	lui	a0,0x1
  24:	01850513          	addi	a0,a0,24 # 1018 <board_name+0x18>
  28:	0fc000ef          	jal	ra,124 <puts>
  2c:	00c12083          	lw	ra,12(sp)
  30:	01010113          	addi	sp,sp,16
  34:	7740006f          	j	7a8 <main>
  38:	01069713          	slli	a4,a3,0x10
  3c:	01075713          	srli	a4,a4,0x10
  40:	00e79523          	sh	a4,10(a5)
  44:	000781a3          	sb	zero,3(a5)
  48:	00168693          	addi	a3,a3,1
  4c:	fc9ff06f          	j	14 <_start+0x14>

00000050 <getchar>:
  50:	800007b7          	lui	a5,0x80000
  54:	00078793          	mv	a5,a5
  58:	0047c703          	lbu	a4,4(a5) # 80000004 <io+0x4>
  5c:	00277713          	andi	a4,a4,2
  60:	fe070ce3          	beqz	a4,58 <getchar+0x8>
  64:	0057c503          	lbu	a0,5(a5)
  68:	00008067          	ret

0000006c <putchar>:
  6c:	800007b7          	lui	a5,0x80000
  70:	00a00713          	li	a4,10
  74:	00078793          	mv	a5,a5
  78:	00e51c63          	bne	a0,a4,90 <putchar+0x24>
  7c:	0047c703          	lbu	a4,4(a5) # 80000004 <io+0x4>
  80:	00177713          	andi	a4,a4,1
  84:	fe071ce3          	bnez	a4,7c <putchar+0x10>
  88:	00d00713          	li	a4,13
  8c:	00e782a3          	sb	a4,5(a5)
  90:	0047c703          	lbu	a4,4(a5)
  94:	00177713          	andi	a4,a4,1
  98:	fe071ce3          	bnez	a4,90 <putchar+0x24>
  9c:	0ff57713          	andi	a4,a0,255
  a0:	00e782a3          	sb	a4,5(a5)
  a4:	00070513          	mv	a0,a4
  a8:	00008067          	ret

000000ac <gets>:
  ac:	fe010113          	addi	sp,sp,-32
  b0:	fff58593          	addi	a1,a1,-1
  b4:	00812c23          	sw	s0,24(sp)
  b8:	00912a23          	sw	s1,20(sp)
  bc:	01212823          	sw	s2,16(sp)
  c0:	01312623          	sw	s3,12(sp)
  c4:	00112e23          	sw	ra,28(sp)
  c8:	00050413          	mv	s0,a0
  cc:	00b504b3          	add	s1,a0,a1
  d0:	00a00913          	li	s2,10
  d4:	00d00993          	li	s3,13
  d8:	00940663          	beq	s0,s1,e4 <gets+0x38>
  dc:	f75ff0ef          	jal	ra,50 <getchar>
  e0:	03251663          	bne	a0,s2,10c <gets+0x60>
  e4:	00a00513          	li	a0,10
  e8:	f85ff0ef          	jal	ra,6c <putchar>
  ec:	01c12083          	lw	ra,28(sp)
  f0:	00040023          	sb	zero,0(s0)
  f4:	01812403          	lw	s0,24(sp)
  f8:	01412483          	lw	s1,20(sp)
  fc:	01012903          	lw	s2,16(sp)
 100:	00c12983          	lw	s3,12(sp)
 104:	02010113          	addi	sp,sp,32
 108:	00008067          	ret
 10c:	fd350ce3          	beq	a0,s3,e4 <gets+0x38>
 110:	00140413          	addi	s0,s0,1
 114:	fea40fa3          	sb	a0,-1(s0)
 118:	0ff57513          	andi	a0,a0,255
 11c:	f51ff0ef          	jal	ra,6c <putchar>
 120:	fb9ff06f          	j	d8 <gets+0x2c>

00000124 <puts>:
 124:	ff010113          	addi	sp,sp,-16
 128:	00812423          	sw	s0,8(sp)
 12c:	00112623          	sw	ra,12(sp)
 130:	00050413          	mv	s0,a0
 134:	00044503          	lbu	a0,0(s0)
 138:	00051c63          	bnez	a0,150 <puts+0x2c>
 13c:	00812403          	lw	s0,8(sp)
 140:	00c12083          	lw	ra,12(sp)
 144:	00a00513          	li	a0,10
 148:	01010113          	addi	sp,sp,16
 14c:	f21ff06f          	j	6c <putchar>
 150:	00140413          	addi	s0,s0,1
 154:	f19ff0ef          	jal	ra,6c <putchar>
 158:	fddff06f          	j	134 <puts+0x10>

0000015c <putx>:
 15c:	ff010113          	addi	sp,sp,-16
 160:	00812423          	sw	s0,8(sp)
 164:	00912223          	sw	s1,4(sp)
 168:	00112623          	sw	ra,12(sp)
 16c:	000014b7          	lui	s1,0x1
 170:	010007b7          	lui	a5,0x1000
 174:	00050413          	mv	s0,a0
 178:	0b848493          	addi	s1,s1,184 # 10b8 <board_name+0xb8>
 17c:	06a7fe63          	bleu	a0,a5,1f8 <putx+0x9c>
 180:	01c55793          	srli	a5,a0,0x1c
 184:	00f487b3          	add	a5,s1,a5
 188:	0007c503          	lbu	a0,0(a5) # 1000000 <nxt.1616+0xffec20>
 18c:	ee1ff0ef          	jal	ra,6c <putchar>
 190:	01845793          	srli	a5,s0,0x18
 194:	00f7f793          	andi	a5,a5,15
 198:	00f487b3          	add	a5,s1,a5
 19c:	0007c503          	lbu	a0,0(a5)
 1a0:	ecdff0ef          	jal	ra,6c <putchar>
 1a4:	01445793          	srli	a5,s0,0x14
 1a8:	00f7f793          	andi	a5,a5,15
 1ac:	00f487b3          	add	a5,s1,a5
 1b0:	0007c503          	lbu	a0,0(a5)
 1b4:	eb9ff0ef          	jal	ra,6c <putchar>
 1b8:	01045793          	srli	a5,s0,0x10
 1bc:	00f7f793          	andi	a5,a5,15
 1c0:	00f487b3          	add	a5,s1,a5
 1c4:	0007c503          	lbu	a0,0(a5)
 1c8:	ea5ff0ef          	jal	ra,6c <putchar>
 1cc:	00c45793          	srli	a5,s0,0xc
 1d0:	00f7f793          	andi	a5,a5,15
 1d4:	00f487b3          	add	a5,s1,a5
 1d8:	0007c503          	lbu	a0,0(a5)
 1dc:	e91ff0ef          	jal	ra,6c <putchar>
 1e0:	00845793          	srli	a5,s0,0x8
 1e4:	00f7f793          	andi	a5,a5,15
 1e8:	00f487b3          	add	a5,s1,a5
 1ec:	0007c503          	lbu	a0,0(a5)
 1f0:	e7dff0ef          	jal	ra,6c <putchar>
 1f4:	0140006f          	j	208 <putx+0xac>
 1f8:	000107b7          	lui	a5,0x10
 1fc:	faa7e4e3          	bltu	a5,a0,1a4 <putx+0x48>
 200:	10000793          	li	a5,256
 204:	fca7e4e3          	bltu	a5,a0,1cc <putx+0x70>
 208:	00445793          	srli	a5,s0,0x4
 20c:	00f7f793          	andi	a5,a5,15
 210:	00f487b3          	add	a5,s1,a5
 214:	0007c503          	lbu	a0,0(a5) # 10000 <nxt.1616+0xec20>
 218:	00f47413          	andi	s0,s0,15
 21c:	00848433          	add	s0,s1,s0
 220:	e4dff0ef          	jal	ra,6c <putchar>
 224:	00044503          	lbu	a0,0(s0)
 228:	00812403          	lw	s0,8(sp)
 22c:	00c12083          	lw	ra,12(sp)
 230:	00412483          	lw	s1,4(sp)
 234:	01010113          	addi	sp,sp,16
 238:	e35ff06f          	j	6c <putchar>

0000023c <putd>:
 23c:	fb010113          	addi	sp,sp,-80
 240:	000015b7          	lui	a1,0x1
 244:	04912223          	sw	s1,68(sp)
 248:	02800613          	li	a2,40
 24c:	00050493          	mv	s1,a0
 250:	09058593          	addi	a1,a1,144 # 1090 <board_name+0x90>
 254:	00810513          	addi	a0,sp,8
 258:	04112623          	sw	ra,76(sp)
 25c:	04812423          	sw	s0,72(sp)
 260:	05212023          	sw	s2,64(sp)
 264:	03312e23          	sw	s3,60(sp)
 268:	03412c23          	sw	s4,56(sp)
 26c:	03512a23          	sw	s5,52(sp)
 270:	03612823          	sw	s6,48(sp)
 274:	204000ef          	jal	ra,478 <memcpy>
 278:	0004d863          	bgez	s1,288 <putd+0x4c>
 27c:	02d00513          	li	a0,45
 280:	dedff0ef          	jal	ra,6c <putchar>
 284:	409004b3          	neg	s1,s1
 288:	00810413          	addi	s0,sp,8
 28c:	00000a93          	li	s5,0
 290:	00000993          	li	s3,0
 294:	00a00a13          	li	s4,10
 298:	00900b13          	li	s6,9
 29c:	00042703          	lw	a4,0(s0)
 2a0:	00100513          	li	a0,1
 2a4:	40e486b3          	sub	a3,s1,a4
 2a8:	00070793          	mv	a5,a4
 2ac:	00e6ca63          	blt	a3,a4,2c0 <putd+0x84>
 2b0:	00150513          	addi	a0,a0,1
 2b4:	00e787b3          	add	a5,a5,a4
 2b8:	40e686b3          	sub	a3,a3,a4
 2bc:	ff4518e3          	bne	a0,s4,2ac <putd+0x70>
 2c0:	40f48933          	sub	s2,s1,a5
 2c4:	04094463          	bltz	s2,30c <putd+0xd0>
 2c8:	03050513          	addi	a0,a0,48
 2cc:	da1ff0ef          	jal	ra,6c <putchar>
 2d0:	00090493          	mv	s1,s2
 2d4:	00100a93          	li	s5,1
 2d8:	00198993          	addi	s3,s3,1
 2dc:	00440413          	addi	s0,s0,4
 2e0:	fb499ee3          	bne	s3,s4,29c <putd+0x60>
 2e4:	04c12083          	lw	ra,76(sp)
 2e8:	04812403          	lw	s0,72(sp)
 2ec:	04412483          	lw	s1,68(sp)
 2f0:	04012903          	lw	s2,64(sp)
 2f4:	03c12983          	lw	s3,60(sp)
 2f8:	03812a03          	lw	s4,56(sp)
 2fc:	03412a83          	lw	s5,52(sp)
 300:	03012b03          	lw	s6,48(sp)
 304:	05010113          	addi	sp,sp,80
 308:	00008067          	ret
 30c:	000a9463          	bnez	s5,314 <putd+0xd8>
 310:	fd6994e3          	bne	s3,s6,2d8 <putd+0x9c>
 314:	03000513          	li	a0,48
 318:	d55ff0ef          	jal	ra,6c <putchar>
 31c:	fbdff06f          	j	2d8 <putd+0x9c>

00000320 <printf>:
 320:	fb010113          	addi	sp,sp,-80
 324:	04f12223          	sw	a5,68(sp)
 328:	03410793          	addi	a5,sp,52
 32c:	02812423          	sw	s0,40(sp)
 330:	03212023          	sw	s2,32(sp)
 334:	01312e23          	sw	s3,28(sp)
 338:	01412c23          	sw	s4,24(sp)
 33c:	01512a23          	sw	s5,20(sp)
 340:	02112623          	sw	ra,44(sp)
 344:	02912223          	sw	s1,36(sp)
 348:	00050413          	mv	s0,a0
 34c:	02b12a23          	sw	a1,52(sp)
 350:	02c12c23          	sw	a2,56(sp)
 354:	02d12e23          	sw	a3,60(sp)
 358:	04e12023          	sw	a4,64(sp)
 35c:	05012423          	sw	a6,72(sp)
 360:	05112623          	sw	a7,76(sp)
 364:	00f12623          	sw	a5,12(sp)
 368:	02500913          	li	s2,37
 36c:	07300993          	li	s3,115
 370:	07800a13          	li	s4,120
 374:	06400a93          	li	s5,100
 378:	00044503          	lbu	a0,0(s0)
 37c:	02051463          	bnez	a0,3a4 <printf+0x84>
 380:	02c12083          	lw	ra,44(sp)
 384:	02812403          	lw	s0,40(sp)
 388:	02412483          	lw	s1,36(sp)
 38c:	02012903          	lw	s2,32(sp)
 390:	01c12983          	lw	s3,28(sp)
 394:	01812a03          	lw	s4,24(sp)
 398:	01412a83          	lw	s5,20(sp)
 39c:	05010113          	addi	sp,sp,80
 3a0:	00008067          	ret
 3a4:	00140493          	addi	s1,s0,1
 3a8:	07251463          	bne	a0,s2,410 <printf+0xf0>
 3ac:	00144503          	lbu	a0,1(s0)
 3b0:	03351063          	bne	a0,s3,3d0 <printf+0xb0>
 3b4:	00c12783          	lw	a5,12(sp)
 3b8:	0007a503          	lw	a0,0(a5)
 3bc:	00478713          	addi	a4,a5,4
 3c0:	00e12623          	sw	a4,12(sp)
 3c4:	f5dff0ef          	jal	ra,320 <printf>
 3c8:	00148413          	addi	s0,s1,1
 3cc:	fadff06f          	j	378 <printf+0x58>
 3d0:	01451e63          	bne	a0,s4,3ec <printf+0xcc>
 3d4:	00c12783          	lw	a5,12(sp)
 3d8:	0007a503          	lw	a0,0(a5)
 3dc:	00478713          	addi	a4,a5,4
 3e0:	00e12623          	sw	a4,12(sp)
 3e4:	d79ff0ef          	jal	ra,15c <putx>
 3e8:	fe1ff06f          	j	3c8 <printf+0xa8>
 3ec:	01551e63          	bne	a0,s5,408 <printf+0xe8>
 3f0:	00c12783          	lw	a5,12(sp)
 3f4:	0007a503          	lw	a0,0(a5)
 3f8:	00478713          	addi	a4,a5,4
 3fc:	00e12623          	sw	a4,12(sp)
 400:	e3dff0ef          	jal	ra,23c <putd>
 404:	fc5ff06f          	j	3c8 <printf+0xa8>
 408:	c65ff0ef          	jal	ra,6c <putchar>
 40c:	fbdff06f          	j	3c8 <printf+0xa8>
 410:	c5dff0ef          	jal	ra,6c <putchar>
 414:	00040493          	mv	s1,s0
 418:	fb1ff06f          	j	3c8 <printf+0xa8>

0000041c <strncmp>:
 41c:	00100693          	li	a3,1
 420:	00054703          	lbu	a4,0(a0)
 424:	0005c783          	lbu	a5,0(a1)
 428:	00d60863          	beq	a2,a3,438 <strncmp+0x1c>
 42c:	00070663          	beqz	a4,438 <strncmp+0x1c>
 430:	00078463          	beqz	a5,438 <strncmp+0x1c>
 434:	00f70663          	beq	a4,a5,440 <strncmp+0x24>
 438:	40f70533          	sub	a0,a4,a5
 43c:	00008067          	ret
 440:	00150513          	addi	a0,a0,1
 444:	00158593          	addi	a1,a1,1
 448:	ffe60613          	addi	a2,a2,-2
 44c:	fd5ff06f          	j	420 <strncmp+0x4>

00000450 <strcmp>:
 450:	fff00613          	li	a2,-1
 454:	fc9ff06f          	j	41c <strncmp>

00000458 <strlen>:
 458:	00000793          	li	a5,0
 45c:	00f50733          	add	a4,a0,a5
 460:	00074703          	lbu	a4,0(a4)
 464:	00071663          	bnez	a4,470 <strlen+0x18>
 468:	00078513          	mv	a0,a5
 46c:	00008067          	ret
 470:	00178793          	addi	a5,a5,1
 474:	fe9ff06f          	j	45c <strlen+0x4>

00000478 <memcpy>:
 478:	00000793          	li	a5,0
 47c:	00c79463          	bne	a5,a2,484 <memcpy+0xc>
 480:	00008067          	ret
 484:	00f58733          	add	a4,a1,a5
 488:	00074683          	lbu	a3,0(a4)
 48c:	00f50733          	add	a4,a0,a5
 490:	00178793          	addi	a5,a5,1
 494:	00d70023          	sb	a3,0(a4)
 498:	fe5ff06f          	j	47c <memcpy+0x4>

0000049c <memset>:
 49c:	00c50633          	add	a2,a0,a2
 4a0:	00050793          	mv	a5,a0
 4a4:	00c79463          	bne	a5,a2,4ac <memset+0x10>
 4a8:	00008067          	ret
 4ac:	00178793          	addi	a5,a5,1
 4b0:	feb78fa3          	sb	a1,-1(a5)
 4b4:	ff1ff06f          	j	4a4 <memset+0x8>

000004b8 <strtok>:
 4b8:	fe010113          	addi	sp,sp,-32
 4bc:	00812c23          	sw	s0,24(sp)
 4c0:	00050413          	mv	s0,a0
 4c4:	00058513          	mv	a0,a1
 4c8:	01212823          	sw	s2,16(sp)
 4cc:	01312623          	sw	s3,12(sp)
 4d0:	00112e23          	sw	ra,28(sp)
 4d4:	00912a23          	sw	s1,20(sp)
 4d8:	00058913          	mv	s2,a1
 4dc:	f7dff0ef          	jal	ra,458 <strlen>
 4e0:	00050993          	mv	s3,a0
 4e4:	00041863          	bnez	s0,4f4 <strtok+0x3c>
 4e8:	000017b7          	lui	a5,0x1
 4ec:	3e07a403          	lw	s0,992(a5) # 13e0 <nxt.1616>
 4f0:	02040a63          	beqz	s0,524 <strtok+0x6c>
 4f4:	00040493          	mv	s1,s0
 4f8:	0004c783          	lbu	a5,0(s1)
 4fc:	02078463          	beqz	a5,524 <strtok+0x6c>
 500:	00098613          	mv	a2,s3
 504:	00090593          	mv	a1,s2
 508:	00048513          	mv	a0,s1
 50c:	f11ff0ef          	jal	ra,41c <strncmp>
 510:	00148793          	addi	a5,s1,1
 514:	02051863          	bnez	a0,544 <strtok+0x8c>
 518:	00001737          	lui	a4,0x1
 51c:	00048023          	sb	zero,0(s1)
 520:	3ef72023          	sw	a5,992(a4) # 13e0 <nxt.1616>
 524:	00040513          	mv	a0,s0
 528:	01c12083          	lw	ra,28(sp)
 52c:	01812403          	lw	s0,24(sp)
 530:	01412483          	lw	s1,20(sp)
 534:	01012903          	lw	s2,16(sp)
 538:	00c12983          	lw	s3,12(sp)
 53c:	02010113          	addi	sp,sp,32
 540:	00008067          	ret
 544:	00078493          	mv	s1,a5
 548:	fb1ff06f          	j	4f8 <strtok+0x40>

0000054c <atoi>:
 54c:	00000693          	li	a3,0
 550:	00000793          	li	a5,0
 554:	02d00613          	li	a2,45
 558:	00054703          	lbu	a4,0(a0)
 55c:	00071a63          	bnez	a4,570 <atoi+0x24>
 560:	00068463          	beqz	a3,568 <atoi+0x1c>
 564:	40f007b3          	neg	a5,a5
 568:	00078513          	mv	a0,a5
 56c:	00008067          	ret
 570:	02c70063          	beq	a4,a2,590 <atoi+0x44>
 574:	00379593          	slli	a1,a5,0x3
 578:	fd070713          	addi	a4,a4,-48
 57c:	00b70733          	add	a4,a4,a1
 580:	00179793          	slli	a5,a5,0x1
 584:	00f707b3          	add	a5,a4,a5
 588:	00150513          	addi	a0,a0,1
 58c:	fcdff06f          	j	558 <atoi+0xc>
 590:	00100693          	li	a3,1
 594:	ff5ff06f          	j	588 <atoi+0x3c>

00000598 <mac>:
 598:	857f                	0x857f
 59a:	00c5                	addi	ra,ra,17
 59c:	00008067          	ret

000005a0 <__mului3>:
 5a0:	00050793          	mv	a5,a0
 5a4:	00000513          	li	a0,0
 5a8:	02b7e063          	bltu	a5,a1,5c8 <__mului3+0x28>
 5ac:	02059263          	bnez	a1,5d0 <__mului3+0x30>
 5b0:	00008067          	ret
 5b4:	0017f713          	andi	a4,a5,1
 5b8:	00070463          	beqz	a4,5c0 <__mului3+0x20>
 5bc:	00b50533          	add	a0,a0,a1
 5c0:	0017d793          	srli	a5,a5,0x1
 5c4:	00159593          	slli	a1,a1,0x1
 5c8:	fe0796e3          	bnez	a5,5b4 <__mului3+0x14>
 5cc:	00008067          	ret
 5d0:	0015f713          	andi	a4,a1,1
 5d4:	00070463          	beqz	a4,5dc <__mului3+0x3c>
 5d8:	00f50533          	add	a0,a0,a5
 5dc:	00179793          	slli	a5,a5,0x1
 5e0:	0015d593          	srli	a1,a1,0x1
 5e4:	fc9ff06f          	j	5ac <__mului3+0xc>

000005e8 <__mulsi3>:
 5e8:	ff010113          	addi	sp,sp,-16
 5ec:	00912223          	sw	s1,4(sp)
 5f0:	00112623          	sw	ra,12(sp)
 5f4:	00812423          	sw	s0,8(sp)
 5f8:	00000493          	li	s1,0
 5fc:	00055663          	bgez	a0,608 <__mulsi3+0x20>
 600:	40a00533          	neg	a0,a0
 604:	00100493          	li	s1,1
 608:	00000413          	li	s0,0
 60c:	0005d663          	bgez	a1,618 <__mulsi3+0x30>
 610:	40b005b3          	neg	a1,a1
 614:	00100413          	li	s0,1
 618:	f89ff0ef          	jal	ra,5a0 <__mului3>
 61c:	00050793          	mv	a5,a0
 620:	00848463          	beq	s1,s0,628 <__mulsi3+0x40>
 624:	40a007b3          	neg	a5,a0
 628:	00c12083          	lw	ra,12(sp)
 62c:	00812403          	lw	s0,8(sp)
 630:	00412483          	lw	s1,4(sp)
 634:	00078513          	mv	a0,a5
 638:	01010113          	addi	sp,sp,16
 63c:	00008067          	ret

00000640 <__divu_modui3>:
 640:	00100793          	li	a5,1
 644:	00059a63          	bnez	a1,658 <__divu_modui3+0x18>
 648:	00058513          	mv	a0,a1
 64c:	00008067          	ret
 650:	00179793          	slli	a5,a5,0x1
 654:	00159593          	slli	a1,a1,0x1
 658:	fea5ece3          	bltu	a1,a0,650 <__divu_modui3+0x10>
 65c:	00058713          	mv	a4,a1
 660:	00000593          	li	a1,0
 664:	00050463          	beqz	a0,66c <__divu_modui3+0x2c>
 668:	00079863          	bnez	a5,678 <__divu_modui3+0x38>
 66c:	fc061ee3          	bnez	a2,648 <__divu_modui3+0x8>
 670:	00050593          	mv	a1,a0
 674:	fd5ff06f          	j	648 <__divu_modui3+0x8>
 678:	00e56663          	bltu	a0,a4,684 <__divu_modui3+0x44>
 67c:	40e50533          	sub	a0,a0,a4
 680:	00f585b3          	add	a1,a1,a5
 684:	0017d793          	srli	a5,a5,0x1
 688:	00175713          	srli	a4,a4,0x1
 68c:	fd9ff06f          	j	664 <__divu_modui3+0x24>

00000690 <__divui3>:
 690:	00100613          	li	a2,1
 694:	fadff06f          	j	640 <__divu_modui3>

00000698 <__modui3>:
 698:	00000613          	li	a2,0
 69c:	fa5ff06f          	j	640 <__divu_modui3>

000006a0 <__divs_modsi3>:
 6a0:	06058e63          	beqz	a1,71c <__divs_modsi3+0x7c>
 6a4:	ff010113          	addi	sp,sp,-16
 6a8:	00812423          	sw	s0,8(sp)
 6ac:	01212023          	sw	s2,0(sp)
 6b0:	00112623          	sw	ra,12(sp)
 6b4:	00912223          	sw	s1,4(sp)
 6b8:	00060913          	mv	s2,a2
 6bc:	00000413          	li	s0,0
 6c0:	00055663          	bgez	a0,6cc <__divs_modsi3+0x2c>
 6c4:	40a00533          	neg	a0,a0
 6c8:	00100413          	li	s0,1
 6cc:	00000493          	li	s1,0
 6d0:	0005d663          	bgez	a1,6dc <__divs_modsi3+0x3c>
 6d4:	40b005b3          	neg	a1,a1
 6d8:	00100493          	li	s1,1
 6dc:	00090613          	mv	a2,s2
 6e0:	f61ff0ef          	jal	ra,640 <__divu_modui3>
 6e4:	00050593          	mv	a1,a0
 6e8:	02090463          	beqz	s2,710 <__divs_modsi3+0x70>
 6ec:	00940463          	beq	s0,s1,6f4 <__divs_modsi3+0x54>
 6f0:	40a005b3          	neg	a1,a0
 6f4:	00c12083          	lw	ra,12(sp)
 6f8:	00812403          	lw	s0,8(sp)
 6fc:	00412483          	lw	s1,4(sp)
 700:	00012903          	lw	s2,0(sp)
 704:	00058513          	mv	a0,a1
 708:	01010113          	addi	sp,sp,16
 70c:	00008067          	ret
 710:	fe0402e3          	beqz	s0,6f4 <__divs_modsi3+0x54>
 714:	40a005b3          	neg	a1,a0
 718:	fddff06f          	j	6f4 <__divs_modsi3+0x54>
 71c:	00058513          	mv	a0,a1
 720:	00008067          	ret

00000724 <__divsi3>:
 724:	00100613          	li	a2,1
 728:	f79ff06f          	j	6a0 <__divs_modsi3>

0000072c <__modsi3>:
 72c:	00000613          	li	a2,0
 730:	f71ff06f          	j	6a0 <__divs_modsi3>

00000734 <banner>:
 734:	ed010113          	addi	sp,sp,-304
 738:	000015b7          	lui	a1,0x1
 73c:	10d00613          	li	a2,269
 740:	2d058593          	addi	a1,a1,720 # 12d0 <board_name+0x2d0>
 744:	00010513          	mv	a0,sp
 748:	12812423          	sw	s0,296(sp)
 74c:	11312e23          	sw	s3,284(sp)
 750:	12112623          	sw	ra,300(sp)
 754:	12912223          	sw	s1,292(sp)
 758:	13212023          	sw	s2,288(sp)
 75c:	00010413          	mv	s0,sp
 760:	d19ff0ef          	jal	ra,478 <memcpy>
 764:	fff00993          	li	s3,-1
 768:	00044903          	lbu	s2,0(s0)
 76c:	02091063          	bnez	s2,78c <banner+0x58>
 770:	12c12083          	lw	ra,300(sp)
 774:	12812403          	lw	s0,296(sp)
 778:	12412483          	lw	s1,292(sp)
 77c:	12012903          	lw	s2,288(sp)
 780:	11c12983          	lw	s3,284(sp)
 784:	13010113          	addi	sp,sp,304
 788:	00008067          	ret
 78c:	00240413          	addi	s0,s0,2
 790:	fff44483          	lbu	s1,-1(s0)
 794:	fff48493          	addi	s1,s1,-1
 798:	fd3488e3          	beq	s1,s3,768 <banner+0x34>
 79c:	00090513          	mv	a0,s2
 7a0:	8cdff0ef          	jal	ra,6c <putchar>
 7a4:	ff1ff06f          	j	794 <banner+0x60>

Disassembly of section .text.startup:

000007a8 <main>:
 7a8:	f9010113          	addi	sp,sp,-112
 7ac:	06112623          	sw	ra,108(sp)
 7b0:	06812423          	sw	s0,104(sp)
 7b4:	06912223          	sw	s1,100(sp)
 7b8:	80000437          	lui	s0,0x80000
 7bc:	07212023          	sw	s2,96(sp)
 7c0:	05512a23          	sw	s5,84(sp)
 7c4:	05612823          	sw	s6,80(sp)
 7c8:	05712623          	sw	s7,76(sp)
 7cc:	05312e23          	sw	s3,92(sp)
 7d0:	05412c23          	sw	s4,88(sp)
 7d4:	05812423          	sw	s8,72(sp)
 7d8:	05912223          	sw	s9,68(sp)
 7dc:	05a12023          	sw	s10,64(sp)
 7e0:	03b12e23          	sw	s11,60(sp)
 7e4:	f51ff0ef          	jal	ra,734 <banner>
 7e8:	00044783          	lbu	a5,0(s0) # 80000000 <io+0x0>
 7ec:	00001737          	lui	a4,0x1
 7f0:	00070713          	mv	a4,a4
 7f4:	00279793          	slli	a5,a5,0x2
 7f8:	00e787b3          	add	a5,a5,a4
 7fc:	0007a583          	lw	a1,0(a5)
 800:	00044603          	lbu	a2,0(s0)
 804:	00001537          	lui	a0,0x1
 808:	0cc50513          	addi	a0,a0,204 # 10cc <board_name+0xcc>
 80c:	00040493          	mv	s1,s0
 810:	b11ff0ef          	jal	ra,320 <printf>
 814:	0014c583          	lbu	a1,1(s1)
 818:	0024c603          	lbu	a2,2(s1)
 81c:	00001537          	lui	a0,0x1
 820:	0e050513          	addi	a0,a0,224 # 10e0 <board_name+0xe0>
 824:	afdff0ef          	jal	ra,320 <printf>
 828:	0064d583          	lhu	a1,6(s1)
 82c:	00001537          	lui	a0,0x1
 830:	10050513          	addi	a0,a0,256 # 1100 <board_name+0x100>
 834:	aedff0ef          	jal	ra,320 <printf>
 838:	00c4a583          	lw	a1,12(s1)
 83c:	00001537          	lui	a0,0x1
 840:	11c50513          	addi	a0,a0,284 # 111c <board_name+0x11c>
 844:	addff0ef          	jal	ra,320 <printf>
 848:	00001537          	lui	a0,0x1
 84c:	13850513          	addi	a0,a0,312 # 1138 <board_name+0x138>
 850:	000014b7          	lui	s1,0x1
 854:	8d1ff0ef          	jal	ra,124 <puts>
 858:	00040413          	mv	s0,s0
 85c:	00048913          	mv	s2,s1
 860:	00001ab7          	lui	s5,0x1
 864:	00001b37          	lui	s6,0x1
 868:	00001bb7          	lui	s7,0x1
 86c:	000017b7          	lui	a5,0x1
 870:	15078513          	addi	a0,a5,336 # 1150 <board_name+0x150>
 874:	aadff0ef          	jal	ra,320 <printf>
 878:	02000613          	li	a2,32
 87c:	00000593          	li	a1,0
 880:	01010513          	addi	a0,sp,16
 884:	c19ff0ef          	jal	ra,49c <memset>
 888:	02000593          	li	a1,32
 88c:	01010513          	addi	a0,sp,16
 890:	81dff0ef          	jal	ra,ac <gets>
 894:	15448593          	addi	a1,s1,340 # 1154 <board_name+0x154>
 898:	01010513          	addi	a0,sp,16
 89c:	c1dff0ef          	jal	ra,4b8 <strtok>
 8a0:	00050993          	mv	s3,a0
 8a4:	fc0504e3          	beqz	a0,86c <main+0xc4>
 8a8:	000017b7          	lui	a5,0x1
 8ac:	15878593          	addi	a1,a5,344 # 1158 <board_name+0x158>
 8b0:	ba1ff0ef          	jal	ra,450 <strcmp>
 8b4:	00051a63          	bnez	a0,8c8 <main+0x120>
 8b8:	00001537          	lui	a0,0x1
 8bc:	16050513          	addi	a0,a0,352 # 1160 <board_name+0x160>
 8c0:	a61ff0ef          	jal	ra,320 <printf>
 8c4:	fa9ff06f          	j	86c <main+0xc4>
 8c8:	000017b7          	lui	a5,0x1
 8cc:	16878593          	addi	a1,a5,360 # 1168 <board_name+0x168>
 8d0:	00098513          	mv	a0,s3
 8d4:	b7dff0ef          	jal	ra,450 <strcmp>
 8d8:	00051c63          	bnez	a0,8f0 <main+0x148>
 8dc:	e59ff0ef          	jal	ra,734 <banner>
 8e0:	00001537          	lui	a0,0x1
 8e4:	17050513          	addi	a0,a0,368 # 1170 <board_name+0x170>
 8e8:	83dff0ef          	jal	ra,124 <puts>
 8ec:	f81ff06f          	j	86c <main+0xc4>
 8f0:	188a8593          	addi	a1,s5,392 # 1188 <board_name+0x188>
 8f4:	00098513          	mv	a0,s3
 8f8:	b59ff0ef          	jal	ra,450 <strcmp>
 8fc:	0a051263          	bnez	a0,9a0 <main+0x1f8>
 900:	15448593          	addi	a1,s1,340
 904:	bb5ff0ef          	jal	ra,4b8 <strtok>
 908:	00050a13          	mv	s4,a0
 90c:	00050663          	beqz	a0,918 <main+0x170>
 910:	c3dff0ef          	jal	ra,54c <atoi>
 914:	00050a13          	mv	s4,a0
 918:	200a0c13          	addi	s8,s4,512
 91c:	00001cb7          	lui	s9,0x1
 920:	00001d37          	lui	s10,0x1
 924:	02000993          	li	s3,32
 928:	05e00d93          	li	s11,94
 92c:	000a0593          	mv	a1,s4
 930:	190c8513          	addi	a0,s9,400 # 1190 <board_name+0x190>
 934:	9edff0ef          	jal	ra,320 <printf>
 938:	00000713          	li	a4,0
 93c:	00ea06b3          	add	a3,s4,a4
 940:	0006c583          	lbu	a1,0(a3)
 944:	198d0513          	addi	a0,s10,408 # 1198 <board_name+0x198>
 948:	00e12623          	sw	a4,12(sp)
 94c:	9d5ff0ef          	jal	ra,320 <printf>
 950:	00c12703          	lw	a4,12(sp)
 954:	00170713          	addi	a4,a4,1 # 1001 <board_name+0x1>
 958:	ff3712e3          	bne	a4,s3,93c <main+0x194>
 95c:	00000713          	li	a4,0
 960:	00ea06b3          	add	a3,s4,a4
 964:	0006c503          	lbu	a0,0(a3)
 968:	fe050693          	addi	a3,a0,-32
 96c:	0ff6f693          	andi	a3,a3,255
 970:	00ddf463          	bleu	a3,s11,978 <main+0x1d0>
 974:	02e00513          	li	a0,46
 978:	00e12623          	sw	a4,12(sp)
 97c:	ef0ff0ef          	jal	ra,6c <putchar>
 980:	00c12703          	lw	a4,12(sp)
 984:	00170713          	addi	a4,a4,1
 988:	fd371ce3          	bne	a4,s3,960 <main+0x1b8>
 98c:	00a00513          	li	a0,10
 990:	020a0a13          	addi	s4,s4,32
 994:	ed8ff0ef          	jal	ra,6c <putchar>
 998:	f94c1ae3          	bne	s8,s4,92c <main+0x184>
 99c:	ed1ff06f          	j	86c <main+0xc4>
 9a0:	19cb0593          	addi	a1,s6,412 # 119c <board_name+0x19c>
 9a4:	00098513          	mv	a0,s3
 9a8:	aa9ff0ef          	jal	ra,450 <strcmp>
 9ac:	02051a63          	bnez	a0,9e0 <main+0x238>
 9b0:	15448593          	addi	a1,s1,340
 9b4:	b05ff0ef          	jal	ra,4b8 <strtok>
 9b8:	00050a63          	beqz	a0,9cc <main+0x224>
 9bc:	b91ff0ef          	jal	ra,54c <atoi>
 9c0:	01051513          	slli	a0,a0,0x10
 9c4:	01055513          	srli	a0,a0,0x10
 9c8:	00a41423          	sh	a0,8(s0)
 9cc:	00845583          	lhu	a1,8(s0)
 9d0:	00001537          	lui	a0,0x1
 9d4:	1a050513          	addi	a0,a0,416 # 11a0 <board_name+0x1a0>
 9d8:	949ff0ef          	jal	ra,320 <printf>
 9dc:	e91ff06f          	j	86c <main+0xc4>
 9e0:	1acb8593          	addi	a1,s7,428 # 11ac <board_name+0x1ac>
 9e4:	00098513          	mv	a0,s3
 9e8:	a69ff0ef          	jal	ra,450 <strcmp>
 9ec:	02051463          	bnez	a0,a14 <main+0x26c>
 9f0:	15448593          	addi	a1,s1,340
 9f4:	ac5ff0ef          	jal	ra,4b8 <strtok>
 9f8:	00050663          	beqz	a0,a04 <main+0x25c>
 9fc:	b51ff0ef          	jal	ra,54c <atoi>
 a00:	00a42623          	sw	a0,12(s0)
 a04:	00001537          	lui	a0,0x1
 a08:	00c42583          	lw	a1,12(s0)
 a0c:	1b450513          	addi	a0,a0,436 # 11b4 <board_name+0x1b4>
 a10:	fc9ff06f          	j	9d8 <main+0x230>
 a14:	000015b7          	lui	a1,0x1
 a18:	1c058593          	addi	a1,a1,448 # 11c0 <board_name+0x1c0>
 a1c:	00098513          	mv	a0,s3
 a20:	a31ff0ef          	jal	ra,450 <strcmp>
 a24:	02051863          	bnez	a0,a54 <main+0x2ac>
 a28:	15448593          	addi	a1,s1,340
 a2c:	a8dff0ef          	jal	ra,4b8 <strtok>
 a30:	00050a63          	beqz	a0,a44 <main+0x29c>
 a34:	b19ff0ef          	jal	ra,54c <atoi>
 a38:	01051513          	slli	a0,a0,0x10
 a3c:	01055513          	srli	a0,a0,0x10
 a40:	00a41523          	sh	a0,10(s0)
 a44:	00001537          	lui	a0,0x1
 a48:	00a45583          	lhu	a1,10(s0)
 a4c:	1c850513          	addi	a0,a0,456 # 11c8 <board_name+0x1c8>
 a50:	f89ff06f          	j	9d8 <main+0x230>
 a54:	000015b7          	lui	a1,0x1
 a58:	1d458593          	addi	a1,a1,468 # 11d4 <board_name+0x1d4>
 a5c:	00098513          	mv	a0,s3
 a60:	9f1ff0ef          	jal	ra,450 <strcmp>
 a64:	00050c13          	mv	s8,a0
 a68:	04051863          	bnez	a0,ab8 <main+0x310>
 a6c:	15448593          	addi	a1,s1,340
 a70:	a49ff0ef          	jal	ra,4b8 <strtok>
 a74:	00000993          	li	s3,0
 a78:	00050663          	beqz	a0,a84 <main+0x2dc>
 a7c:	ad1ff0ef          	jal	ra,54c <atoi>
 a80:	00050993          	mv	s3,a0
 a84:	15490593          	addi	a1,s2,340
 a88:	00000513          	li	a0,0
 a8c:	a2dff0ef          	jal	ra,4b8 <strtok>
 a90:	00050663          	beqz	a0,a9c <main+0x2f4>
 a94:	ab9ff0ef          	jal	ra,54c <atoi>
 a98:	00050c13          	mv	s8,a0
 a9c:	000c0593          	mv	a1,s8
 aa0:	00098513          	mv	a0,s3
 aa4:	b45ff0ef          	jal	ra,5e8 <__mulsi3>
 aa8:	00050593          	mv	a1,a0
 aac:	00001537          	lui	a0,0x1
 ab0:	1d850513          	addi	a0,a0,472 # 11d8 <board_name+0x1d8>
 ab4:	f25ff06f          	j	9d8 <main+0x230>
 ab8:	000015b7          	lui	a1,0x1
 abc:	1e458593          	addi	a1,a1,484 # 11e4 <board_name+0x1e4>
 ac0:	00098513          	mv	a0,s3
 ac4:	98dff0ef          	jal	ra,450 <strcmp>
 ac8:	00050c13          	mv	s8,a0
 acc:	06051263          	bnez	a0,b30 <main+0x388>
 ad0:	15448593          	addi	a1,s1,340
 ad4:	9e5ff0ef          	jal	ra,4b8 <strtok>
 ad8:	00050663          	beqz	a0,ae4 <main+0x33c>
 adc:	a71ff0ef          	jal	ra,54c <atoi>
 ae0:	00050c13          	mv	s8,a0
 ae4:	15490593          	addi	a1,s2,340
 ae8:	00000513          	li	a0,0
 aec:	9cdff0ef          	jal	ra,4b8 <strtok>
 af0:	10050663          	beqz	a0,bfc <main+0x454>
 af4:	a59ff0ef          	jal	ra,54c <atoi>
 af8:	00050993          	mv	s3,a0
 afc:	00050593          	mv	a1,a0
 b00:	000c0513          	mv	a0,s8
 b04:	c29ff0ef          	jal	ra,72c <__modsi3>
 b08:	00a12623          	sw	a0,12(sp)
 b0c:	00098593          	mv	a1,s3
 b10:	000c0513          	mv	a0,s8
 b14:	c11ff0ef          	jal	ra,724 <__divsi3>
 b18:	00c12603          	lw	a2,12(sp)
 b1c:	00050593          	mv	a1,a0
 b20:	00001537          	lui	a0,0x1
 b24:	1e850513          	addi	a0,a0,488 # 11e8 <board_name+0x1e8>
 b28:	ff8ff0ef          	jal	ra,320 <printf>
 b2c:	d41ff06f          	j	86c <main+0xc4>
 b30:	000015b7          	lui	a1,0x1
 b34:	1fc58593          	addi	a1,a1,508 # 11fc <board_name+0x1fc>
 b38:	00098513          	mv	a0,s3
 b3c:	915ff0ef          	jal	ra,450 <strcmp>
 b40:	00050c13          	mv	s8,a0
 b44:	06051e63          	bnez	a0,bc0 <main+0x418>
 b48:	15490593          	addi	a1,s2,340
 b4c:	00000513          	li	a0,0
 b50:	969ff0ef          	jal	ra,4b8 <strtok>
 b54:	00000993          	li	s3,0
 b58:	00050663          	beqz	a0,b64 <main+0x3bc>
 b5c:	9f1ff0ef          	jal	ra,54c <atoi>
 b60:	00050993          	mv	s3,a0
 b64:	15490593          	addi	a1,s2,340
 b68:	00000513          	li	a0,0
 b6c:	94dff0ef          	jal	ra,4b8 <strtok>
 b70:	00000c93          	li	s9,0
 b74:	00050663          	beqz	a0,b80 <main+0x3d8>
 b78:	9d5ff0ef          	jal	ra,54c <atoi>
 b7c:	00050c93          	mv	s9,a0
 b80:	15490593          	addi	a1,s2,340
 b84:	00000513          	li	a0,0
 b88:	931ff0ef          	jal	ra,4b8 <strtok>
 b8c:	00050663          	beqz	a0,b98 <main+0x3f0>
 b90:	9bdff0ef          	jal	ra,54c <atoi>
 b94:	00050c13          	mv	s8,a0
 b98:	010c1613          	slli	a2,s8,0x10
 b9c:	010c9593          	slli	a1,s9,0x10
 ba0:	4105d593          	srai	a1,a1,0x10
 ba4:	41065613          	srai	a2,a2,0x10
 ba8:	00098513          	mv	a0,s3
 bac:	9edff0ef          	jal	ra,598 <mac>
 bb0:	00050593          	mv	a1,a0
 bb4:	00001537          	lui	a0,0x1
 bb8:	20050513          	addi	a0,a0,512 # 1200 <board_name+0x200>
 bbc:	e1dff06f          	j	9d8 <main+0x230>
 bc0:	0009c783          	lbu	a5,0(s3)
 bc4:	ca0784e3          	beqz	a5,86c <main+0xc4>
 bc8:	00001537          	lui	a0,0x1
 bcc:	00098593          	mv	a1,s3
 bd0:	20c50513          	addi	a0,a0,524 # 120c <board_name+0x20c>
 bd4:	f4cff0ef          	jal	ra,320 <printf>
 bd8:	00001537          	lui	a0,0x1
 bdc:	22850513          	addi	a0,a0,552 # 1228 <board_name+0x228>
 be0:	d44ff0ef          	jal	ra,124 <puts>
 be4:	00001537          	lui	a0,0x1
 be8:	27050513          	addi	a0,a0,624 # 1270 <board_name+0x270>
 bec:	d38ff0ef          	jal	ra,124 <puts>
 bf0:	00001537          	lui	a0,0x1
 bf4:	2a850513          	addi	a0,a0,680 # 12a8 <board_name+0x2a8>
 bf8:	cf1ff06f          	j	8e8 <main+0x140>
 bfc:	00100073          	ebreak
